
AVRASM ver. 2.1.30  C:\Users\JHK\Desktop\최성식\1353660114_osd_click_mikroc_pic\2014-02-04_OSD SPI버전\List\osd1.asm Thu Feb 06 11:10:31 2014

C:\Users\JHK\Desktop\최성식\1353660114_osd_click_mikroc_pic\2014-02-04_OSD SPI버전\List\osd1.asm(1075): warning: Register r2 already defined by the .DEF directive
C:\Users\JHK\Desktop\최성식\1353660114_osd_click_mikroc_pic\2014-02-04_OSD SPI버전\List\osd1.asm(1076): warning: Register r4 already defined by the .DEF directive
C:\Users\JHK\Desktop\최성식\1353660114_osd_click_mikroc_pic\2014-02-04_OSD SPI버전\List\osd1.asm(1077): warning: Register r6 already defined by the .DEF directive
C:\Users\JHK\Desktop\최성식\1353660114_osd_click_mikroc_pic\2014-02-04_OSD SPI버전\List\osd1.asm(1078): warning: Register r8 already defined by the .DEF directive
C:\Users\JHK\Desktop\최성식\1353660114_osd_click_mikroc_pic\2014-02-04_OSD SPI버전\List\osd1.asm(1079): warning: Register r11 already defined by the .DEF directive
C:\Users\JHK\Desktop\최성식\1353660114_osd_click_mikroc_pic\2014-02-04_OSD SPI버전\List\osd1.asm(1080): warning: Register r10 already defined by the .DEF directive
C:\Users\JHK\Desktop\최성식\1353660114_osd_click_mikroc_pic\2014-02-04_OSD SPI버전\List\osd1.asm(1081): warning: Register r13 already defined by the .DEF directive
C:\Users\JHK\Desktop\최성식\1353660114_osd_click_mikroc_pic\2014-02-04_OSD SPI버전\List\osd1.asm(1082): warning: Register r12 already defined by the .DEF directive
                 
                 
                 ;CodeVisionAVR C Compiler V2.05.0 Professional
                 ;(C) Copyright 1998-2010 Pavel Haiduc, HP InfoTech s.r.l.
                 ;http://www.hpinfotech.com
                 
                 ;Chip type                : ATxmega32A4
                 ;Program type             : Application
                 ;Clock frequency          : 2.000000 MHz
                 ;Memory model             : Small
                 ;Optimize for             : Size
                 ;(s)printf features       : float, width, precision
                 ;(s)scanf features        : int, width
                 ;External RAM size        : 0
                 ;Data Stack size          : 1024 byte(s)
                 ;Heap size                : 0 byte(s)
                 ;Promote 'char' to 'int'  : Yes
                 ;'char' is unsigned       : Yes
                 ;8 bit enums              : Yes
                 ;global 'const' stored in FLASH: No
                 ;Enhanced core instructions    : On
                 ;Smart register allocation     : On
                 ;Automatic register allocation : On
                 
                 	#pragma AVRPART ADMIN PART_NAME ATxmega32A4
                 	#pragma AVRPART MEMORY PROG_FLASH 34816
                 	#pragma AVRPART MEMORY EEPROM 1024
                 	#pragma AVRPART MEMORY INT_SRAM SIZE 12287
                 	#pragma AVRPART MEMORY INT_SRAM START_ADDR 0x2000
                 
                 	#define CALL_SUPPORTED 1
                 
                 	.LISTMAC
                 	.EQU CCP=0x34
                 	.EQU RAMPD=0x38
                 	.EQU RAMPX=0x39
                 	.EQU RAMPY=0x3A
                 	.EQU RAMPZ=0x3B
                 	.EQU EIND=0x3C
                 	.EQU WDT_CTRL=0x80
                 	.EQU PMIC_CTRL=0xA2
                 	.EQU NVM_ADDR0=0X01C0
                 	.EQU NVM_ADDR1=NVM_ADDR0+1
                 	.EQU NVM_ADDR2=NVM_ADDR1+1
                 	.EQU NVM_DATA0=NVM_ADDR0+4
                 	.EQU NVM_CMD=NVM_ADDR0+0xA
                 	.EQU NVM_CTRLA=NVM_ADDR0+0xB
                 	.EQU NVM_CTRLB=NVM_ADDR0+0xC
                 	.EQU NVM_STATUS=NVM_ADDR0+0xF
                 	.EQU SPL=0x3D
                 	.EQU SPH=0x3E
                 	.EQU SREG=0x3F
                 	.EQU GPIO0=0x00
                 	.EQU GPIO1=0x01
                 	.EQU GPIO2=0x02
                 	.EQU GPIO3=0x03
                 	.EQU GPIO4=0x04
                 	.EQU GPIO5=0x05
                 	.EQU GPIO6=0x06
                 	.EQU GPIO7=0x07
                 	.EQU GPIO8=0x08
                 	.EQU GPIO9=0x09
                 	.EQU GPIO10=0x0A
                 	.EQU GPIO11=0x0B
                 	.EQU GPIO12=0x0C
                 	.EQU GPIO13=0x0D
                 	.EQU GPIO14=0x0E
                 	.EQU GPIO15=0x0F
                 
                 	.DEF R0X0=R0
                 	.DEF R0X1=R1
                 	.DEF R0X2=R2
                 	.DEF R0X3=R3
                 	.DEF R0X4=R4
                 	.DEF R0X5=R5
                 	.DEF R0X6=R6
                 	.DEF R0X7=R7
                 	.DEF R0X8=R8
                 	.DEF R0X9=R9
                 	.DEF R0XA=R10
                 	.DEF R0XB=R11
                 	.DEF R0XC=R12
                 	.DEF R0XD=R13
                 	.DEF R0XE=R14
                 	.DEF R0XF=R15
                 	.DEF R0X10=R16
                 	.DEF R0X11=R17
                 	.DEF R0X12=R18
                 	.DEF R0X13=R19
                 	.DEF R0X14=R20
                 	.DEF R0X15=R21
                 	.DEF R0X16=R22
                 	.DEF R0X17=R23
                 	.DEF R0X18=R24
                 	.DEF R0X19=R25
                 	.DEF R0X1A=R26
                 	.DEF R0X1B=R27
                 	.DEF R0X1C=R28
                 	.DEF R0X1D=R29
                 	.DEF R0X1E=R30
                 	.DEF R0X1F=R31
                 
                 	.EQU __SRAM_START=0x2000
                 	.EQU __SRAM_END=0x2FFF
                 	.EQU __DSTACK_SIZE=0x0400
                 	.EQU __HEAP_SIZE=0x0000
                 	.EQU __CLEAR_SRAM_SIZE=__SRAM_END-__SRAM_START+1
                 
                 	.MACRO __CPD1N
                 	CPI  R30,LOW(@0)
                 	LDI  R26,HIGH(@0)
                 	CPC  R31,R26
                 	LDI  R26,BYTE3(@0)
                 	CPC  R22,R26
                 	LDI  R26,BYTE4(@0)
                 	CPC  R23,R26
                 	.ENDM
                 
                 	.MACRO __CPD2N
                 	CPI  R26,LOW(@0)
                 	LDI  R30,HIGH(@0)
                 	CPC  R27,R30
                 	LDI  R30,BYTE3(@0)
                 	CPC  R24,R30
                 	LDI  R30,BYTE4(@0)
                 	CPC  R25,R30
                 	.ENDM
                 
                 	.MACRO __CPWRR
                 	CP   R@0,R@2
                 	CPC  R@1,R@3
                 	.ENDM
                 
                 	.MACRO __CPWRN
                 	CPI  R@0,LOW(@2)
                 	LDI  R30,HIGH(@2)
                 	CPC  R@1,R30
                 	.ENDM
                 
                 	.MACRO __ADDB1MN
                 	SUBI R30,LOW(-@0-(@1))
                 	.ENDM
                 
                 	.MACRO __ADDB2MN
                 	SUBI R26,LOW(-@0-(@1))
                 	.ENDM
                 
                 	.MACRO __ADDW1MN
                 	SUBI R30,LOW(-@0-(@1))
                 	SBCI R31,HIGH(-@0-(@1))
                 	.ENDM
                 
                 	.MACRO __ADDW2MN
                 	SUBI R26,LOW(-@0-(@1))
                 	SBCI R27,HIGH(-@0-(@1))
                 	.ENDM
                 
                 	.MACRO __ADDW1FN
                 	SUBI R30,LOW(-2*@0-(@1))
                 	SBCI R31,HIGH(-2*@0-(@1))
                 	.ENDM
                 
                 	.MACRO __ADDD1FN
                 	SUBI R30,LOW(-2*@0-(@1))
                 	SBCI R31,HIGH(-2*@0-(@1))
                 	SBCI R22,BYTE3(-2*@0-(@1))
                 	.ENDM
                 
                 	.MACRO __ADDD1N
                 	SUBI R30,LOW(-@0)
                 	SBCI R31,HIGH(-@0)
                 	SBCI R22,BYTE3(-@0)
                 	SBCI R23,BYTE4(-@0)
                 	.ENDM
                 
                 	.MACRO __ADDD2N
                 	SUBI R26,LOW(-@0)
                 	SBCI R27,HIGH(-@0)
                 	SBCI R24,BYTE3(-@0)
                 	SBCI R25,BYTE4(-@0)
                 	.ENDM
                 
                 	.MACRO __SUBD1N
                 	SUBI R30,LOW(@0)
                 	SBCI R31,HIGH(@0)
                 	SBCI R22,BYTE3(@0)
                 	SBCI R23,BYTE4(@0)
                 	.ENDM
                 
                 	.MACRO __SUBD2N
                 	SUBI R26,LOW(@0)
                 	SBCI R27,HIGH(@0)
                 	SBCI R24,BYTE3(@0)
                 	SBCI R25,BYTE4(@0)
                 	.ENDM
                 
                 	.MACRO __ANDBMNN
                 	LDS  R30,@0+(@1)
                 	ANDI R30,LOW(@2)
                 	STS  @0+(@1),R30
                 	.ENDM
                 
                 	.MACRO __ANDWMNN
                 	LDS  R30,@0+(@1)
                 	ANDI R30,LOW(@2)
                 	STS  @0+(@1),R30
                 	LDS  R30,@0+(@1)+1
                 	ANDI R30,HIGH(@2)
                 	STS  @0+(@1)+1,R30
                 	.ENDM
                 
                 	.MACRO __ANDD1N
                 	ANDI R30,LOW(@0)
                 	ANDI R31,HIGH(@0)
                 	ANDI R22,BYTE3(@0)
                 	ANDI R23,BYTE4(@0)
                 	.ENDM
                 
                 	.MACRO __ANDD2N
                 	ANDI R26,LOW(@0)
                 	ANDI R27,HIGH(@0)
                 	ANDI R24,BYTE3(@0)
                 	ANDI R25,BYTE4(@0)
                 	.ENDM
                 
                 	.MACRO __ORBMNN
                 	LDS  R30,@0+(@1)
                 	ORI  R30,LOW(@2)
                 	STS  @0+(@1),R30
                 	.ENDM
                 
                 	.MACRO __ORWMNN
                 	LDS  R30,@0+(@1)
                 	ORI  R30,LOW(@2)
                 	STS  @0+(@1),R30
                 	LDS  R30,@0+(@1)+1
                 	ORI  R30,HIGH(@2)
                 	STS  @0+(@1)+1,R30
                 	.ENDM
                 
                 	.MACRO __ORD1N
                 	ORI  R30,LOW(@0)
                 	ORI  R31,HIGH(@0)
                 	ORI  R22,BYTE3(@0)
                 	ORI  R23,BYTE4(@0)
                 	.ENDM
                 
                 	.MACRO __ORD2N
                 	ORI  R26,LOW(@0)
                 	ORI  R27,HIGH(@0)
                 	ORI  R24,BYTE3(@0)
                 	ORI  R25,BYTE4(@0)
                 	.ENDM
                 
                 	.MACRO __DELAY_USB
                 	LDI  R24,LOW(@0)
                 __DELAY_USB_LOOP:
                 	DEC  R24
                 	BRNE __DELAY_USB_LOOP
                 	.ENDM
                 
                 	.MACRO __DELAY_USW
                 	LDI  R24,LOW(@0)
                 	LDI  R25,HIGH(@0)
                 __DELAY_USW_LOOP:
                 	SBIW R24,1
                 	BRNE __DELAY_USW_LOOP
                 	.ENDM
                 
                 	.MACRO __GETD1S
                 	LDD  R30,Y+@0
                 	LDD  R31,Y+@0+1
                 	LDD  R22,Y+@0+2
                 	LDD  R23,Y+@0+3
                 	.ENDM
                 
                 	.MACRO __GETD2S
                 	LDD  R26,Y+@0
                 	LDD  R27,Y+@0+1
                 	LDD  R24,Y+@0+2
                 	LDD  R25,Y+@0+3
                 	.ENDM
                 
                 	.MACRO __PUTD1S
                 	STD  Y+@0,R30
                 	STD  Y+@0+1,R31
                 	STD  Y+@0+2,R22
                 	STD  Y+@0+3,R23
                 	.ENDM
                 
                 	.MACRO __PUTD2S
                 	STD  Y+@0,R26
                 	STD  Y+@0+1,R27
                 	STD  Y+@0+2,R24
                 	STD  Y+@0+3,R25
                 	.ENDM
                 
                 	.MACRO __PUTDZ2
                 	STD  Z+@0,R26
                 	STD  Z+@0+1,R27
                 	STD  Z+@0+2,R24
                 	STD  Z+@0+3,R25
                 	.ENDM
                 
                 	.MACRO __CLRD1S
                 	STD  Y+@0,R30
                 	STD  Y+@0+1,R30
                 	STD  Y+@0+2,R30
                 	STD  Y+@0+3,R30
                 	.ENDM
                 
                 	.MACRO __POINTB1MN
                 	LDI  R30,LOW(@0+(@1))
                 	.ENDM
                 
                 	.MACRO __POINTW1MN
                 	LDI  R30,LOW(@0+(@1))
                 	LDI  R31,HIGH(@0+(@1))
                 	.ENDM
                 
                 	.MACRO __POINTD1M
                 	LDI  R30,LOW(@0)
                 	LDI  R31,HIGH(@0)
                 	LDI  R22,BYTE3(@0)
                 	LDI  R23,BYTE4(@0)
                 	.ENDM
                 
                 	.MACRO __POINTW1FN
                 	LDI  R30,LOW(2*@0+(@1))
                 	LDI  R31,HIGH(2*@0+(@1))
                 	.ENDM
                 
                 	.MACRO __POINTD1FN
                 	LDI  R30,LOW(2*@0+(@1))
                 	LDI  R31,HIGH(2*@0+(@1))
                 	LDI  R22,BYTE3(2*@0+(@1))
                 	LDI  R23,BYTE4(2*@0+(@1))
                 	.ENDM
                 
                 	.MACRO __POINTB2MN
                 	LDI  R26,LOW(@0+(@1))
                 	.ENDM
                 
                 	.MACRO __POINTW2MN
                 	LDI  R26,LOW(@0+(@1))
                 	LDI  R27,HIGH(@0+(@1))
                 	.ENDM
                 
                 	.MACRO __POINTBRM
                 	LDI  R@0,LOW(@1)
                 	.ENDM
                 
                 	.MACRO __POINTWRM
                 	LDI  R@0,LOW(@2)
                 	LDI  R@1,HIGH(@2)
                 	.ENDM
                 
                 	.MACRO __POINTBRMN
                 	LDI  R@0,LOW(@1+(@2))
                 	.ENDM
                 
                 	.MACRO __POINTWRMN
                 	LDI  R@0,LOW(@2+(@3))
                 	LDI  R@1,HIGH(@2+(@3))
                 	.ENDM
                 
                 	.MACRO __POINTWRFN
                 	LDI  R@0,LOW(@2*2+(@3))
                 	LDI  R@1,HIGH(@2*2+(@3))
                 	.ENDM
                 
                 	.MACRO __GETD1N
                 	LDI  R30,LOW(@0)
                 	LDI  R31,HIGH(@0)
                 	LDI  R22,BYTE3(@0)
                 	LDI  R23,BYTE4(@0)
                 	.ENDM
                 
                 	.MACRO __GETD2N
                 	LDI  R26,LOW(@0)
                 	LDI  R27,HIGH(@0)
                 	LDI  R24,BYTE3(@0)
                 	LDI  R25,BYTE4(@0)
                 	.ENDM
                 
                 	.MACRO __GETB1MN
                 	LDS  R30,@0+(@1)
                 	.ENDM
                 
                 	.MACRO __GETB1HMN
                 	LDS  R31,@0+(@1)
                 	.ENDM
                 
                 	.MACRO __GETW1MN
                 	LDS  R30,@0+(@1)
                 	LDS  R31,@0+(@1)+1
                 	.ENDM
                 
                 	.MACRO __GETD1MN
                 	LDS  R30,@0+(@1)
                 	LDS  R31,@0+(@1)+1
                 	LDS  R22,@0+(@1)+2
                 	LDS  R23,@0+(@1)+3
                 	.ENDM
                 
                 	.MACRO __GETBRMN
                 	LDS  R@0,@1+(@2)
                 	.ENDM
                 
                 	.MACRO __GETWRMN
                 	LDS  R@0,@2+(@3)
                 	LDS  R@1,@2+(@3)+1
                 	.ENDM
                 
                 	.MACRO __GETWRZ
                 	LDD  R@0,Z+@2
                 	LDD  R@1,Z+@2+1
                 	.ENDM
                 
                 	.MACRO __GETD2Z
                 	LDD  R26,Z+@0
                 	LDD  R27,Z+@0+1
                 	LDD  R24,Z+@0+2
                 	LDD  R25,Z+@0+3
                 	.ENDM
                 
                 	.MACRO __GETB2MN
                 	LDS  R26,@0+(@1)
                 	.ENDM
                 
                 	.MACRO __GETW2MN
                 	LDS  R26,@0+(@1)
                 	LDS  R27,@0+(@1)+1
                 	.ENDM
                 
                 	.MACRO __GETD2MN
                 	LDS  R26,@0+(@1)
                 	LDS  R27,@0+(@1)+1
                 	LDS  R24,@0+(@1)+2
                 	LDS  R25,@0+(@1)+3
                 	.ENDM
                 
                 	.MACRO __PUTB1MN
                 	STS  @0+(@1),R30
                 	.ENDM
                 
                 	.MACRO __PUTW1MN
                 	STS  @0+(@1),R30
                 	STS  @0+(@1)+1,R31
                 	.ENDM
                 
                 	.MACRO __PUTD1MN
                 	STS  @0+(@1),R30
                 	STS  @0+(@1)+1,R31
                 	STS  @0+(@1)+2,R22
                 	STS  @0+(@1)+3,R23
                 	.ENDM
                 
                 	.MACRO __PUTB1EN
                 	LDI  R26,LOW(@0+(@1))
                 	LDI  R27,HIGH(@0+(@1))
                 	CALL __EEPROMWRB
                 	.ENDM
                 
                 	.MACRO __PUTW1EN
                 	LDI  R26,LOW(@0+(@1))
                 	LDI  R27,HIGH(@0+(@1))
                 	CALL __EEPROMWRW
                 	.ENDM
                 
                 	.MACRO __PUTD1EN
                 	LDI  R26,LOW(@0+(@1))
                 	LDI  R27,HIGH(@0+(@1))
                 	CALL __EEPROMWRD
                 	.ENDM
                 
                 	.MACRO __PUTBR0MN
                 	STS  @0+(@1),R0
                 	.ENDM
                 
                 	.MACRO __PUTBMRN
                 	STS  @0+(@1),R@2
                 	.ENDM
                 
                 	.MACRO __PUTWMRN
                 	STS  @0+(@1),R@2
                 	STS  @0+(@1)+1,R@3
                 	.ENDM
                 
                 	.MACRO __PUTBZR
                 	STD  Z+@1,R@0
                 	.ENDM
                 
                 	.MACRO __PUTWZR
                 	STD  Z+@2,R@0
                 	STD  Z+@2+1,R@1
                 	.ENDM
                 
                 	.MACRO __GETW1R
                 	MOV  R30,R@0
                 	MOV  R31,R@1
                 	.ENDM
                 
                 	.MACRO __GETW2R
                 	MOV  R26,R@0
                 	MOV  R27,R@1
                 	.ENDM
                 
                 	.MACRO __GETWRN
                 	LDI  R@0,LOW(@2)
                 	LDI  R@1,HIGH(@2)
                 	.ENDM
                 
                 	.MACRO __PUTW1R
                 	MOV  R@0,R30
                 	MOV  R@1,R31
                 	.ENDM
                 
                 	.MACRO __PUTW2R
                 	MOV  R@0,R26
                 	MOV  R@1,R27
                 	.ENDM
                 
                 	.MACRO __ADDWRN
                 	SUBI R@0,LOW(-@2)
                 	SBCI R@1,HIGH(-@2)
                 	.ENDM
                 
                 	.MACRO __ADDWRR
                 	ADD  R@0,R@2
                 	ADC  R@1,R@3
                 	.ENDM
                 
                 	.MACRO __SUBWRN
                 	SUBI R@0,LOW(@2)
                 	SBCI R@1,HIGH(@2)
                 	.ENDM
                 
                 	.MACRO __SUBWRR
                 	SUB  R@0,R@2
                 	SBC  R@1,R@3
                 	.ENDM
                 
                 	.MACRO __ANDWRN
                 	ANDI R@0,LOW(@2)
                 	ANDI R@1,HIGH(@2)
                 	.ENDM
                 
                 	.MACRO __ANDWRR
                 	AND  R@0,R@2
                 	AND  R@1,R@3
                 	.ENDM
                 
                 	.MACRO __ORWRN
                 	ORI  R@0,LOW(@2)
                 	ORI  R@1,HIGH(@2)
                 	.ENDM
                 
                 	.MACRO __ORWRR
                 	OR   R@0,R@2
                 	OR   R@1,R@3
                 	.ENDM
                 
                 	.MACRO __EORWRR
                 	EOR  R@0,R@2
                 	EOR  R@1,R@3
                 	.ENDM
                 
                 	.MACRO __GETWRS
                 	LDD  R@0,Y+@2
                 	LDD  R@1,Y+@2+1
                 	.ENDM
                 
                 	.MACRO __PUTBSR
                 	STD  Y+@1,R@0
                 	.ENDM
                 
                 	.MACRO __PUTWSR
                 	STD  Y+@2,R@0
                 	STD  Y+@2+1,R@1
                 	.ENDM
                 
                 	.MACRO __MOVEWRR
                 	MOV  R@0,R@2
                 	MOV  R@1,R@3
                 	.ENDM
                 
                 	.MACRO __INWR
                 	IN   R@0,@2
                 	IN   R@1,@2+1
                 	.ENDM
                 
                 	.MACRO __OUTWR
                 	OUT  @2+1,R@1
                 	OUT  @2,R@0
                 	.ENDM
                 
                 	.MACRO __CALL1MN
                 	LDS  R30,@0+(@1)
                 	LDS  R31,@0+(@1)+1
                 	ICALL
                 	.ENDM
                 
                 	.MACRO __CALL1FN
                 	LDI  R30,LOW(2*@0+(@1))
                 	LDI  R31,HIGH(2*@0+(@1))
                 	CALL __GETW1PF
                 	ICALL
                 	.ENDM
                 
                 	.MACRO __CALL2EN
                 	LDI  R26,LOW(@0+(@1))
                 	LDI  R27,HIGH(@0+(@1))
                 	CALL __EEPROMRDW
                 	ICALL
                 	.ENDM
                 
                 	.MACRO __GETW1STACK
                 	IN   R26,SPL
                 	IN   R27,SPH
                 	ADIW R26,@0+1
                 	LD   R30,X+
                 	LD   R31,X
                 	.ENDM
                 
                 	.MACRO __GETD1STACK
                 	IN   R26,SPL
                 	IN   R27,SPH
                 	ADIW R26,@0+1
                 	LD   R30,X+
                 	LD   R31,X+
                 	LD   R22,X
                 	.ENDM
                 
                 	.MACRO __NBST
                 	BST  R@0,@1
                 	IN   R30,SREG
                 	LDI  R31,0x40
                 	EOR  R30,R31
                 	OUT  SREG,R30
                 	.ENDM
                 
                 
                 	.MACRO __PUTB1SN
                 	LDD  R26,Y+@0
                 	LDD  R27,Y+@0+1
                 	SUBI R26,LOW(-@1)
                 	SBCI R27,HIGH(-@1)
                 	ST   X,R30
                 	.ENDM
                 
                 	.MACRO __PUTW1SN
                 	LDD  R26,Y+@0
                 	LDD  R27,Y+@0+1
                 	SUBI R26,LOW(-@1)
                 	SBCI R27,HIGH(-@1)
                 	ST   X+,R30
                 	ST   X,R31
                 	.ENDM
                 
                 	.MACRO __PUTD1SN
                 	LDD  R26,Y+@0
                 	LDD  R27,Y+@0+1
                 	SUBI R26,LOW(-@1)
                 	SBCI R27,HIGH(-@1)
                 	CALL __PUTDP1
                 	.ENDM
                 
                 	.MACRO __PUTB1SNS
                 	LDD  R26,Y+@0
                 	LDD  R27,Y+@0+1
                 	ADIW R26,@1
                 	ST   X,R30
                 	.ENDM
                 
                 	.MACRO __PUTW1SNS
                 	LDD  R26,Y+@0
                 	LDD  R27,Y+@0+1
                 	ADIW R26,@1
                 	ST   X+,R30
                 	ST   X,R31
                 	.ENDM
                 
                 	.MACRO __PUTD1SNS
                 	LDD  R26,Y+@0
                 	LDD  R27,Y+@0+1
                 	ADIW R26,@1
                 	CALL __PUTDP1
                 	.ENDM
                 
                 	.MACRO __PUTB1PMN
                 	LDS  R26,@0
                 	LDS  R27,@0+1
                 	SUBI R26,LOW(-@1)
                 	SBCI R27,HIGH(-@1)
                 	ST   X,R30
                 	.ENDM
                 
                 	.MACRO __PUTW1PMN
                 	LDS  R26,@0
                 	LDS  R27,@0+1
                 	SUBI R26,LOW(-@1)
                 	SBCI R27,HIGH(-@1)
                 	ST   X+,R30
                 	ST   X,R31
                 	.ENDM
                 
                 	.MACRO __PUTD1PMN
                 	LDS  R26,@0
                 	LDS  R27,@0+1
                 	SUBI R26,LOW(-@1)
                 	SBCI R27,HIGH(-@1)
                 	CALL __PUTDP1
                 	.ENDM
                 
                 	.MACRO __PUTB1PMNS
                 	LDS  R26,@0
                 	LDS  R27,@0+1
                 	ADIW R26,@1
                 	ST   X,R30
                 	.ENDM
                 
                 	.MACRO __PUTW1PMNS
                 	LDS  R26,@0
                 	LDS  R27,@0+1
                 	ADIW R26,@1
                 	ST   X+,R30
                 	ST   X,R31
                 	.ENDM
                 
                 	.MACRO __PUTD1PMNS
                 	LDS  R26,@0
                 	LDS  R27,@0+1
                 	ADIW R26,@1
                 	CALL __PUTDP1
                 	.ENDM
                 
                 	.MACRO __PUTB1RN
                 	MOVW R26,R@0
                 	SUBI R26,LOW(-@1)
                 	SBCI R27,HIGH(-@1)
                 	ST   X,R30
                 	.ENDM
                 
                 	.MACRO __PUTW1RN
                 	MOVW R26,R@0
                 	SUBI R26,LOW(-@1)
                 	SBCI R27,HIGH(-@1)
                 	ST   X+,R30
                 	ST   X,R31
                 	.ENDM
                 
                 	.MACRO __PUTD1RN
                 	MOVW R26,R@0
                 	SUBI R26,LOW(-@1)
                 	SBCI R27,HIGH(-@1)
                 	CALL __PUTDP1
                 	.ENDM
                 
                 	.MACRO __PUTB1RNS
                 	MOVW R26,R@0
                 	ADIW R26,@1
                 	ST   X,R30
                 	.ENDM
                 
                 	.MACRO __PUTW1RNS
                 	MOVW R26,R@0
                 	ADIW R26,@1
                 	ST   X+,R30
                 	ST   X,R31
                 	.ENDM
                 
                 	.MACRO __PUTD1RNS
                 	MOVW R26,R@0
                 	ADIW R26,@1
                 	CALL __PUTDP1
                 	.ENDM
                 
                 	.MACRO __PUTB1RON
                 	MOV  R26,R@0
                 	MOV  R27,R@1
                 	SUBI R26,LOW(-@2)
                 	SBCI R27,HIGH(-@2)
                 	ST   X,R30
                 	.ENDM
                 
                 	.MACRO __PUTW1RON
                 	MOV  R26,R@0
                 	MOV  R27,R@1
                 	SUBI R26,LOW(-@2)
                 	SBCI R27,HIGH(-@2)
                 	ST   X+,R30
                 	ST   X,R31
                 	.ENDM
                 
                 	.MACRO __PUTD1RON
                 	MOV  R26,R@0
                 	MOV  R27,R@1
                 	SUBI R26,LOW(-@2)
                 	SBCI R27,HIGH(-@2)
                 	CALL __PUTDP1
                 	.ENDM
                 
                 	.MACRO __PUTB1RONS
                 	MOV  R26,R@0
                 	MOV  R27,R@1
                 	ADIW R26,@2
                 	ST   X,R30
                 	.ENDM
                 
                 	.MACRO __PUTW1RONS
                 	MOV  R26,R@0
                 	MOV  R27,R@1
                 	ADIW R26,@2
                 	ST   X+,R30
                 	ST   X,R31
                 	.ENDM
                 
                 	.MACRO __PUTD1RONS
                 	MOV  R26,R@0
                 	MOV  R27,R@1
                 	ADIW R26,@2
                 	CALL __PUTDP1
                 	.ENDM
                 
                 
                 	.MACRO __GETB1SX
                 	MOVW R30,R28
                 	SUBI R30,LOW(-@0)
                 	SBCI R31,HIGH(-@0)
                 	LD   R30,Z
                 	.ENDM
                 
                 	.MACRO __GETB1HSX
                 	MOVW R30,R28
                 	SUBI R30,LOW(-@0)
                 	SBCI R31,HIGH(-@0)
                 	LD   R31,Z
                 	.ENDM
                 
                 	.MACRO __GETW1SX
                 	MOVW R30,R28
                 	SUBI R30,LOW(-@0)
                 	SBCI R31,HIGH(-@0)
                 	LD   R0,Z+
                 	LD   R31,Z
                 	MOV  R30,R0
                 	.ENDM
                 
                 	.MACRO __GETD1SX
                 	MOVW R30,R28
                 	SUBI R30,LOW(-@0)
                 	SBCI R31,HIGH(-@0)
                 	LD   R0,Z+
                 	LD   R1,Z+
                 	LD   R22,Z+
                 	LD   R23,Z
                 	MOVW R30,R0
                 	.ENDM
                 
                 	.MACRO __GETB2SX
                 	MOVW R26,R28
                 	SUBI R26,LOW(-@0)
                 	SBCI R27,HIGH(-@0)
                 	LD   R26,X
                 	.ENDM
                 
                 	.MACRO __GETW2SX
                 	MOVW R26,R28
                 	SUBI R26,LOW(-@0)
                 	SBCI R27,HIGH(-@0)
                 	LD   R0,X+
                 	LD   R27,X
                 	MOV  R26,R0
                 	.ENDM
                 
                 	.MACRO __GETD2SX
                 	MOVW R26,R28
                 	SUBI R26,LOW(-@0)
                 	SBCI R27,HIGH(-@0)
                 	LD   R0,X+
                 	LD   R1,X+
                 	LD   R24,X+
                 	LD   R25,X
                 	MOVW R26,R0
                 	.ENDM
                 
                 	.MACRO __GETBRSX
                 	MOVW R30,R28
                 	SUBI R30,LOW(-@1)
                 	SBCI R31,HIGH(-@1)
                 	LD   R@0,Z
                 	.ENDM
                 
                 	.MACRO __GETWRSX
                 	MOVW R30,R28
                 	SUBI R30,LOW(-@2)
                 	SBCI R31,HIGH(-@2)
                 	LD   R@0,Z+
                 	LD   R@1,Z
                 	.ENDM
                 
                 	.MACRO __GETBRSX2
                 	MOVW R26,R28
                 	SUBI R26,LOW(-@1)
                 	SBCI R27,HIGH(-@1)
                 	LD   R@0,X
                 	.ENDM
                 
                 	.MACRO __GETWRSX2
                 	MOVW R26,R28
                 	SUBI R26,LOW(-@2)
                 	SBCI R27,HIGH(-@2)
                 	LD   R@0,X+
                 	LD   R@1,X
                 	.ENDM
                 
                 	.MACRO __LSLW8SX
                 	MOVW R30,R28
                 	SUBI R30,LOW(-@0)
                 	SBCI R31,HIGH(-@0)
                 	LD   R31,Z
                 	CLR  R30
                 	.ENDM
                 
                 	.MACRO __PUTB1SX
                 	MOVW R26,R28
                 	SUBI R26,LOW(-@0)
                 	SBCI R27,HIGH(-@0)
                 	ST   X,R30
                 	.ENDM
                 
                 	.MACRO __PUTW1SX
                 	MOVW R26,R28
                 	SUBI R26,LOW(-@0)
                 	SBCI R27,HIGH(-@0)
                 	ST   X+,R30
                 	ST   X,R31
                 	.ENDM
                 
                 	.MACRO __PUTD1SX
                 	MOVW R26,R28
                 	SUBI R26,LOW(-@0)
                 	SBCI R27,HIGH(-@0)
                 	ST   X+,R30
                 	ST   X+,R31
                 	ST   X+,R22
                 	ST   X,R23
                 	.ENDM
                 
                 	.MACRO __CLRW1SX
                 	MOVW R26,R28
                 	SUBI R26,LOW(-@0)
                 	SBCI R27,HIGH(-@0)
                 	ST   X+,R30
                 	ST   X,R30
                 	.ENDM
                 
                 	.MACRO __CLRD1SX
                 	MOVW R26,R28
                 	SUBI R26,LOW(-@0)
                 	SBCI R27,HIGH(-@0)
                 	ST   X+,R30
                 	ST   X+,R30
                 	ST   X+,R30
                 	ST   X,R30
                 	.ENDM
                 
                 	.MACRO __PUTB2SX
                 	MOVW R30,R28
                 	SUBI R30,LOW(-@0)
                 	SBCI R31,HIGH(-@0)
                 	ST   Z,R26
                 	.ENDM
                 
                 	.MACRO __PUTW2SX
                 	MOVW R30,R28
                 	SUBI R30,LOW(-@0)
                 	SBCI R31,HIGH(-@0)
                 	ST   Z+,R26
                 	ST   Z,R27
                 	.ENDM
                 
                 	.MACRO __PUTD2SX
                 	MOVW R30,R28
                 	SUBI R30,LOW(-@0)
                 	SBCI R31,HIGH(-@0)
                 	ST   Z+,R26
                 	ST   Z+,R27
                 	ST   Z+,R24
                 	ST   Z,R25
                 	.ENDM
                 
                 	.MACRO __PUTBSRX
                 	MOVW R30,R28
                 	SUBI R30,LOW(-@1)
                 	SBCI R31,HIGH(-@1)
                 	ST   Z,R@0
                 	.ENDM
                 
                 	.MACRO __PUTWSRX
                 	MOVW R30,R28
                 	SUBI R30,LOW(-@2)
                 	SBCI R31,HIGH(-@2)
                 	ST   Z+,R@0
                 	ST   Z,R@1
                 	.ENDM
                 
                 	.MACRO __PUTB1SNX
                 	MOVW R26,R28
                 	SUBI R26,LOW(-@0)
                 	SBCI R27,HIGH(-@0)
                 	LD   R0,X+
                 	LD   R27,X
                 	MOV  R26,R0
                 	SUBI R26,LOW(-@1)
                 	SBCI R27,HIGH(-@1)
                 	ST   X,R30
                 	.ENDM
                 
                 	.MACRO __PUTW1SNX
                 	MOVW R26,R28
                 	SUBI R26,LOW(-@0)
                 	SBCI R27,HIGH(-@0)
                 	LD   R0,X+
                 	LD   R27,X
                 	MOV  R26,R0
                 	SUBI R26,LOW(-@1)
                 	SBCI R27,HIGH(-@1)
                 	ST   X+,R30
                 	ST   X,R31
                 	.ENDM
                 
                 	.MACRO __PUTD1SNX
                 	MOVW R26,R28
                 	SUBI R26,LOW(-@0)
                 	SBCI R27,HIGH(-@0)
                 	LD   R0,X+
                 	LD   R27,X
                 	MOV  R26,R0
                 	SUBI R26,LOW(-@1)
                 	SBCI R27,HIGH(-@1)
                 	ST   X+,R30
                 	ST   X+,R31
                 	ST   X+,R22
                 	ST   X,R23
                 	.ENDM
                 
                 	.MACRO __MULBRR
                 	MULS R@0,R@1
                 	MOVW R30,R0
                 	.ENDM
                 
                 	.MACRO __MULBRRU
                 	MUL  R@0,R@1
                 	MOVW R30,R0
                 	.ENDM
                 
                 	.MACRO __MULBRR0
                 	MULS R@0,R@1
                 	.ENDM
                 
                 	.MACRO __MULBRRU0
                 	MUL  R@0,R@1
                 	.ENDM
                 
                 	.MACRO __MULBNWRU
                 	LDI  R26,@2
                 	MUL  R26,R@0
                 	MOVW R30,R0
                 	MUL  R26,R@1
                 	ADD  R31,R0
                 	.ENDM
                 
                 ;NAME DEFINITIONS FOR GLOBAL VARIABLES ALLOCATED TO REGISTERS
                 	.DEF _col_pointer=R2
                 	.DEF _row_pointer=R4
                 	.DEF _title_pointer=R6
                 	.DEF _ten_ms=R8
                 	.DEF _a=R11
                 	.DEF _b=R10
                 	.DEF _c=R13
                 	.DEF _d=R12
                 
                 ;GPIO0-GPIO15 INITIALIZATION VALUES
                 	.EQU __GPIO0_INIT=0x00
                 	.EQU __GPIO1_INIT=0x00
                 	.EQU __GPIO2_INIT=0x00
                 	.EQU __GPIO3_INIT=0x00
                 	.EQU __GPIO4_INIT=0x00
                 	.EQU __GPIO5_INIT=0x00
                 	.EQU __GPIO6_INIT=0x00
                 	.EQU __GPIO7_INIT=0x00
                 	.EQU __GPIO8_INIT=0x00
                 	.EQU __GPIO9_INIT=0x00
                 	.EQU __GPIO10_INIT=0x00
                 	.EQU __GPIO11_INIT=0x00
                 	.EQU __GPIO12_INIT=0x00
                 	.EQU __GPIO13_INIT=0x00
                 	.EQU __GPIO14_INIT=0x00
                 	.EQU __GPIO15_INIT=0x00
                 
                 ;GLOBAL REGISTER VARIABLES INITIALIZATION VALUES
                 	.EQU __R2_INIT=0x01
                 	.EQU __R3_INIT=0x00
                 	.EQU __R4_INIT=0x01
                 	.EQU __R5_INIT=0x00
                 	.EQU __R6_INIT=0x00
                 	.EQU __R7_INIT=0x00
                 	.EQU __R8_INIT=0x00
                 	.EQU __R9_INIT=0x00
                 	.EQU __R10_INIT=0x00
                 	.EQU __R11_INIT=0x00
                 	.EQU __R12_INIT=0x00
                 	.EQU __R13_INIT=0x00
                 	.EQU __R14_INIT=0x00
                 
                 	.CSEG
                 	.ORG 0x00
                 
                 ;START OF CODE MARKER
                 __START_OF_CODE:
                 
                 ;INTERRUPT VECTORS
000000 940c 01ec 	JMP  __RESET
000002 940c 0000 	JMP  0x00
000004 940c 0000 	JMP  0x00
000006 940c 0000 	JMP  0x00
000008 940c 0000 	JMP  0x00
00000a 940c 0000 	JMP  0x00
00000c 940c 0000 	JMP  0x00
00000e 940c 0000 	JMP  0x00
000010 940c 0000 	JMP  0x00
000012 940c 0000 	JMP  0x00
000014 940c 0427 	JMP  _rtcxm_overflow_isr
000016 940c 0000 	JMP  0x00
000018 940c 0000 	JMP  0x00
00001a 940c 0000 	JMP  0x00
00001c 940c 03da 	JMP  _tcc0_overflow_isr
00001e 940c 0000 	JMP  0x00
000020 940c 0000 	JMP  0x00
000022 940c 0000 	JMP  0x00
000024 940c 0000 	JMP  0x00
000026 940c 0000 	JMP  0x00
000028 940c 0000 	JMP  0x00
00002a 940c 0000 	JMP  0x00
00002c 940c 0000 	JMP  0x00
00002e 940c 0000 	JMP  0x00
000030 940c 0000 	JMP  0x00
000032 940c 0000 	JMP  0x00
000034 940c 0000 	JMP  0x00
000036 940c 0000 	JMP  0x00
000038 940c 0000 	JMP  0x00
00003a 940c 0000 	JMP  0x00
00003c 940c 0000 	JMP  0x00
00003e 940c 0000 	JMP  0x00
000040 940c 0000 	JMP  0x00
000042 940c 0000 	JMP  0x00
000044 940c 0000 	JMP  0x00
000046 940c 0000 	JMP  0x00
000048 940c 0000 	JMP  0x00
00004a 940c 0000 	JMP  0x00
00004c 940c 0000 	JMP  0x00
00004e 940c 0000 	JMP  0x00
000050 940c 0000 	JMP  0x00
000052 940c 0000 	JMP  0x00
000054 940c 0000 	JMP  0x00
000056 940c 0000 	JMP  0x00
000058 940c 0000 	JMP  0x00
00005a 940c 0000 	JMP  0x00
00005c 940c 0000 	JMP  0x00
00005e 940c 0000 	JMP  0x00
000060 940c 0000 	JMP  0x00
000062 940c 0000 	JMP  0x00
000064 940c 0000 	JMP  0x00
000066 940c 0000 	JMP  0x00
000068 940c 0000 	JMP  0x00
00006a 940c 0000 	JMP  0x00
00006c 940c 0000 	JMP  0x00
00006e 940c 0000 	JMP  0x00
000070 940c 0000 	JMP  0x00
000072 940c 0000 	JMP  0x00
000074 940c 0000 	JMP  0x00
000076 940c 0000 	JMP  0x00
000078 940c 0000 	JMP  0x00
00007a 940c 0000 	JMP  0x00
00007c 940c 0000 	JMP  0x00
00007e 940c 0000 	JMP  0x00
000080 940c 0000 	JMP  0x00
000082 940c 0000 	JMP  0x00
000084 940c 0000 	JMP  0x00
000086 940c 0000 	JMP  0x00
000088 940c 0000 	JMP  0x00
00008a 940c 0000 	JMP  0x00
00008c 940c 0000 	JMP  0x00
00008e 940c 0000 	JMP  0x00
000090 940c 0000 	JMP  0x00
000092 940c 0000 	JMP  0x00
000094 940c 0000 	JMP  0x00
000096 940c 0000 	JMP  0x00
000098 940c 0000 	JMP  0x00
00009a 940c 0000 	JMP  0x00
00009c 940c 0000 	JMP  0x00
00009e 940c 0000 	JMP  0x00
0000a0 940c 0000 	JMP  0x00
0000a2 940c 0000 	JMP  0x00
0000a4 940c 0000 	JMP  0x00
0000a6 940c 0000 	JMP  0x00
0000a8 940c 0000 	JMP  0x00
0000aa 940c 0000 	JMP  0x00
0000ac 940c 0000 	JMP  0x00
0000ae 940c 0000 	JMP  0x00
0000b0 940c 0467 	JMP  _usartd0_rx_isr
0000b2 940c 0000 	JMP  0x00
0000b4 940c 0000 	JMP  0x00
0000b6 940c 0000 	JMP  0x00
0000b8 940c 0000 	JMP  0x00
0000ba 940c 0000 	JMP  0x00
                 
                 _0x3:
0000bc f1f2
0000bd eff0
0000be edee
0000bf fbf3      	.DB  0xF2,0xF1,0xF0,0xEF,0xEE,0xED,0xF3,0xFB
0000c0 aaa9
0000c1 acab
0000c2 aead
0000c3 0000      	.DB  0xA9,0xAA,0xAB,0xAC,0xAD,0xAE,0x0,0x0
0000c4 0000
0000c5 0000
0000c6 0000
0000c7 0000      	.DB  0x0,0x0,0x0,0x0,0x0,0x0,0x0,0x0
0000c8 0000
0000c9 0000
0000ca 0000
0000cb 0000      	.DB  0x0,0x0,0x0,0x0,0x0,0x0,0x0,0x0
0000cc 0000
0000cd 0048
0000ce 0000
0000cf 4600      	.DB  0x0,0x0,0x48,0x0,0x0,0x0,0x0,0x46
0000d0 403f
0000d1 0000
0000d2 4945
0000d3 4741      	.DB  0x3F,0x40,0x0,0x0,0x45,0x49,0x41,0x47
0000d4 010a
0000d5 0302
0000d6 0504
0000d7 0706      	.DB  0xA,0x1,0x2,0x3,0x4,0x5,0x6,0x7
0000d8 0908
0000d9 4344
0000da 004a
0000db 424b      	.DB  0x8,0x9,0x44,0x43,0x4A,0x0,0x4B,0x42
0000dc 0b4c
0000dd 0d0c
0000de 0f0e
0000df 1110      	.DB  0x4C,0xB,0xC,0xD,0xE,0xF,0x10,0x11
0000e0 1312
0000e1 1514
0000e2 1716
0000e3 1918      	.DB  0x12,0x13,0x14,0x15,0x16,0x17,0x18,0x19
0000e4 1b1a
0000e5 1d1c
0000e6 1f1e
0000e7 2120      	.DB  0x1A,0x1B,0x1C,0x1D,0x1E,0x1F,0x20,0x21
0000e8 2322
0000e9 0024
0000ea 0000
0000eb 0000      	.DB  0x22,0x23,0x24,0x0,0x0,0x0,0x0,0x0
0000ec 2500
0000ed 2726
0000ee 2928
0000ef 2b2a      	.DB  0x0,0x25,0x26,0x27,0x28,0x29,0x2A,0x2B
0000f0 2d2c
0000f1 2f2e
0000f2 3130
0000f3 3332      	.DB  0x2C,0x2D,0x2E,0x2F,0x30,0x31,0x32,0x33
0000f4 3534
0000f5 3736
0000f6 3938
0000f7 3b3a      	.DB  0x34,0x35,0x36,0x37,0x38,0x39,0x3A,0x3B
0000f8 3d3c
C:\Users\JHK\Desktop\최성식\1353660114_osd_click_mikroc_pic\2014-02-04_OSD SPI버전\List\osd1.asm(1235): warning: .cseg .db misalignment - padding zero byte
0000f9 003e      	.DB  0x3C,0x3D,0x3E
                 _0x5E:
C:\Users\JHK\Desktop\최성식\1353660114_osd_click_mikroc_pic\2014-02-04_OSD SPI버전\List\osd1.asm(1237): warning: .cseg .db misalignment - padding zero byte
0000fa 0001      	.DB  0x1
                 _0x0:
0000fb 4843
0000fc 4345
0000fd 214b
0000fe 000d      	.DB  0x43,0x48,0x45,0x43,0x4B,0x21,0xD,0x0
0000ff 4c43
000100 4145
000101 2152
000102 000d      	.DB  0x43,0x4C,0x45,0x41,0x52,0x21,0xD,0x0
000103 534f
000104 2044
000105 4e4f
000106 0d21      	.DB  0x4F,0x53,0x44,0x20,0x4F,0x4E,0x21,0xD
000107 4f00
000108 4453
000109 4f20
00010a 4646      	.DB  0x0,0x4F,0x53,0x44,0x20,0x4F,0x46,0x46
00010b 0d21
00010c 7200
00010d 6e61
00010e 6567      	.DB  0x21,0xD,0x0,0x72,0x61,0x6E,0x67,0x65
00010f 6f20
000110 2066
000111 6f63
000112 756c      	.DB  0x20,0x6F,0x66,0x20,0x63,0x6F,0x6C,0x75
000113 6e6d
000114 6920
000115 2073
000116 7e31      	.DB  0x6D,0x6E,0x20,0x69,0x73,0x20,0x31,0x7E
000117 3732
000118 000d
000119 6f43
00011a 206c      	.DB  0x32,0x37,0xD,0x0,0x43,0x6F,0x6C,0x20
00011b 6f50
00011c 6e69
00011d 6574
00011e 2072      	.DB  0x50,0x6F,0x69,0x6E,0x74,0x65,0x72,0x20
00011f 203a
000120 7200
000121 6e61
000122 6567      	.DB  0x3A,0x20,0x0,0x72,0x61,0x6E,0x67,0x65
000123 6f20
000124 2066
000125 6f72
000126 2077      	.DB  0x20,0x6F,0x66,0x20,0x72,0x6F,0x77,0x20
000127 7369
000128 3120
000129 317e
00012a 0d32      	.DB  0x69,0x73,0x20,0x31,0x7E,0x31,0x32,0xD
00012b 5200
00012c 776f
00012d 5020
00012e 696f      	.DB  0x0,0x52,0x6F,0x77,0x20,0x50,0x6F,0x69
00012f 746e
000130 7265
000131 3a20
000132 0020      	.DB  0x6E,0x74,0x65,0x72,0x20,0x3A,0x20,0x0
000133 4843
000134 5441
000135 0d21
000136 5400      	.DB  0x43,0x48,0x41,0x54,0x21,0xD,0x0,0x54
000137 7469
000138 656c
000139 6920
00013a 2073      	.DB  0x69,0x74,0x6C,0x65,0x20,0x69,0x73,0x20
00013b 6f74
00013c 206f
00013d 6f6c
00013e 676e      	.DB  0x74,0x6F,0x6F,0x20,0x6C,0x6F,0x6E,0x67
00013f 2821
000140 614d
000141 3a78
000142 3531      	.DB  0x21,0x28,0x4D,0x61,0x78,0x3A,0x31,0x35
000143 0d29
000144 5400
000145 5449
000146 454c      	.DB  0x29,0xD,0x0,0x54,0x49,0x54,0x4C,0x45
000147 0d21
000148 4f00
000149 4453
00014a 4320      	.DB  0x21,0xD,0x0,0x4F,0x53,0x44,0x20,0x43
00014b 4e4f
00014c 454e
00014d 5443
00014e 3a20      	.DB  0x4F,0x4E,0x4E,0x45,0x43,0x54,0x20,0x3A
00014f 4f20
000150 0d4b
000151 4f00
000152 544e      	.DB  0x20,0x4F,0x4B,0xD,0x0,0x4F,0x4E,0x54
000153 4d49
000154 5245
000155 4f20
000156 0d4e      	.DB  0x49,0x4D,0x45,0x52,0x20,0x4F,0x4E,0xD
000157 4f00
000158 544e
000159 4d49
00015a 5245      	.DB  0x0,0x4F,0x4E,0x54,0x49,0x4D,0x45,0x52
00015b 4f20
00015c 4646
00015d 000d
00015e 4e4f      	.DB  0x20,0x4F,0x46,0x46,0xD,0x0,0x4F,0x4E
00015f 4954
000160 454d
000161 2052
000162 4553      	.DB  0x54,0x49,0x4D,0x45,0x52,0x20,0x53,0x45
000163 0d54
000164 4400
000165 5441
000166 2045      	.DB  0x54,0xD,0x0,0x44,0x41,0x54,0x45,0x20
000167 4553
000168 0d54
000169 5300
00016a 4345      	.DB  0x53,0x45,0x54,0xD,0x0,0x53,0x45,0x43
00016b 4e4f
00016c 2044
00016d 203a
00016e 0030      	.DB  0x4F,0x4E,0x44,0x20,0x3A,0x20,0x30,0x0
00016f 4e45
000170 4f43
000171 4544
000172 2052      	.DB  0x45,0x4E,0x43,0x4F,0x44,0x45,0x52,0x20
000173 4e4f
000174 000d
000175 4e45
000176 4f43      	.DB  0x4F,0x4E,0xD,0x0,0x45,0x4E,0x43,0x4F
000177 4544
000178 2052
000179 464f
00017a 0d46      	.DB  0x44,0x45,0x52,0x20,0x4F,0x46,0x46,0xD
00017b 4500
00017c 434e
00017d 444f
00017e 5245      	.DB  0x0,0x45,0x4E,0x43,0x4F,0x44,0x45,0x52
00017f 5620
000180 4c41
000181 4555
000182 5220      	.DB  0x20,0x56,0x41,0x4C,0x55,0x45,0x20,0x52
000183 5345
000184 5445
000185 2121
000186 000d      	.DB  0x45,0x53,0x45,0x54,0x21,0x21,0xD,0x0
000187 3425
000188 332e
000189 4d66
C:\Users\JHK\Desktop\최성식\1353660114_osd_click_mikroc_pic\2014-02-04_OSD SPI버전\List\osd1.asm(1274): warning: .cseg .db misalignment - padding zero byte
00018a 0000      	.DB  0x25,0x34,0x2E,0x33,0x66,0x4D,0x0
                 _0x2000000:
00018b 4e2d
00018c 4e41
C:\Users\JHK\Desktop\최성식\1353660114_osd_click_mikroc_pic\2014-02-04_OSD SPI버전\List\osd1.asm(1276): warning: .cseg .db misalignment - padding zero byte
00018d 0000      	.DB  0x2D,0x4E,0x41,0x4E,0x0
                 _0x2080060:
C:\Users\JHK\Desktop\최성식\1353660114_osd_click_mikroc_pic\2014-02-04_OSD SPI버전\List\osd1.asm(1278): warning: .cseg .db misalignment - padding zero byte
00018e 0001      	.DB  0x1
                 _0x2080000:
00018f 4e2d
000190 4e41
000191 4900
000192 464e      	.DB  0x2D,0x4E,0x41,0x4E,0x0,0x49,0x4E,0x46
C:\Users\JHK\Desktop\최성식\1353660114_osd_click_mikroc_pic\2014-02-04_OSD SPI버전\List\osd1.asm(1281): warning: .cseg .db misalignment - padding zero byte
000193 0000      	.DB  0x0
                 
                 __GLOBAL_INI_TBL:
000194 007b      	.DW  0x7B
000195 255f      	.DW  _OSDchr
000196 0178      	.DW  _0x3*2
                 
000197 0008      	.DW  0x08
000198 2400      	.DW  _0x30
000199 01f6      	.DW  _0x0*2
                 
00019a 0008      	.DW  0x08
00019b 2408      	.DW  _0x31
00019c 01fe      	.DW  _0x0*2+8
                 
00019d 0009      	.DW  0x09
00019e 2410      	.DW  _0x32
00019f 0206      	.DW  _0x0*2+16
                 
0001a0 000a      	.DW  0x0A
0001a1 2419      	.DW  _0x33
0001a2 020f      	.DW  _0x0*2+25
                 
0001a3 0019      	.DW  0x19
0001a4 2423      	.DW  _0x3A
0001a5 0219      	.DW  _0x0*2+35
                 
0001a6 0019      	.DW  0x19
0001a7 243c      	.DW  _0x3A+25
0001a8 0219      	.DW  _0x0*2+35
                 
0001a9 000f      	.DW  0x0F
0001aa 2455      	.DW  _0x3A+50
0001ab 0232      	.DW  _0x0*2+60
                 
0001ac 0002      	.DW  0x02
0001ad 2464      	.DW  _0x3A+65
0001ae 01fc      	.DW  _0x0*2+6
                 
0001af 0016      	.DW  0x16
0001b0 2466      	.DW  _0x41
0001b1 0241      	.DW  _0x0*2+75
                 
0001b2 0016      	.DW  0x16
0001b3 247c      	.DW  _0x41+22
0001b4 0241      	.DW  _0x0*2+75
                 
0001b5 000f      	.DW  0x0F
0001b6 2492      	.DW  _0x41+44
0001b7 0257      	.DW  _0x0*2+97
                 
0001b8 0002      	.DW  0x02
0001b9 24a1      	.DW  _0x41+59
0001ba 01fc      	.DW  _0x0*2+6
                 
0001bb 0007      	.DW  0x07
0001bc 24a3      	.DW  _0x4D
0001bd 0266      	.DW  _0x0*2+112
                 
0001be 001c      	.DW  0x1C
0001bf 24aa      	.DW  _0x55
0001c0 026d      	.DW  _0x0*2+119
                 
0001c1 0008      	.DW  0x08
0001c2 24c6      	.DW  _0x55+28
0001c3 0289      	.DW  _0x0*2+147
                 
0001c4 0002      	.DW  0x02
0001c5 24ce      	.DW  _0x5D
0001c6 01fc      	.DW  _0x0*2+6
                 
0001c7 0001      	.DW  0x01
0001c8 26d2      	.DW  _timer_pointer
0001c9 01f4      	.DW  _0x5E*2
                 
0001ca 0012      	.DW  0x12
0001cb 24d0      	.DW  _0x6F
0001cc 0291      	.DW  _0x0*2+155
                 
0001cd 000c      	.DW  0x0C
0001ce 24e2      	.DW  _0x6F+18
0001cf 02a3      	.DW  _0x0*2+173
                 
0001d0 000d      	.DW  0x0D
0001d1 24ee      	.DW  _0x6F+30
0001d2 02af      	.DW  _0x0*2+185
                 
0001d3 000d      	.DW  0x0D
0001d4 24fb      	.DW  _0x6F+43
0001d5 02bc      	.DW  _0x0*2+198
                 
0001d6 000a      	.DW  0x0A
0001d7 2508      	.DW  _0x6F+56
0001d8 02c9      	.DW  _0x0*2+211
                 
0001d9 000b      	.DW  0x0B
0001da 2512      	.DW  _0x6F+66
0001db 02d3      	.DW  _0x0*2+221
                 
0001dc 000c      	.DW  0x0C
0001dd 251d      	.DW  _0x6F+77
0001de 02de      	.DW  _0x0*2+232
                 
0001df 000d      	.DW  0x0D
0001e0 2529      	.DW  _0x6F+89
0001e1 02ea      	.DW  _0x0*2+244
                 
0001e2 0017      	.DW  0x17
0001e3 2536      	.DW  _0x6F+102
0001e4 02f7      	.DW  _0x0*2+257
                 
0001e5 0012      	.DW  0x12
0001e6 254d      	.DW  _0xB8
0001e7 0291      	.DW  _0x0*2+155
                 
0001e8 0001      	.DW  0x01
0001e9 26d8      	.DW  __seed_G104
0001ea 031c      	.DW  _0x2080060*2
                 
                 _0xFFFFFFFF:
0001eb 0000      	.DW  0
                 
                 __RESET:
0001ec 94f8      	CLI
0001ed 27ee      	CLR  R30
0001ee bfe8      	OUT  RAMPD,R30
0001ef bfe9      	OUT  RAMPX,R30
0001f0 bfea      	OUT  RAMPY,R30
                 
                 ;MEMORY MAPPED EEPROM ACCESS IS USED
0001f1 91f0 01cc 	LDS  R31,NVM_CTRLB
0001f3 60f8      	ORI  R31,0x08
0001f4 93f0 01cc 	STS  NVM_CTRLB,R31
                 
                 ;INTERRUPT VECTORS ARE PLACED
                 ;AT THE START OF FLASH
0001f6 edf8      	LDI  R31,0xD8
0001f7 bff4      	OUT  CCP,R31
0001f8 93e0 00a2 	STS  PMIC_CTRL,R30
                 
                 ;DISABLE WATCHDOG
0001fa 91a0 0080 	LDS  R26,WDT_CTRL
0001fc 7fad      	CBR  R26,2
0001fd 60a1      	SBR  R26,1
0001fe bff4      	OUT  CCP,R31
0001ff 93a0 0080 	STS  WDT_CTRL,R26
                 
                 ;CLEAR SRAM
000201 e080      	LDI  R24,LOW(__CLEAR_SRAM_SIZE)
000202 e190      	LDI  R25,HIGH(__CLEAR_SRAM_SIZE)
000203 e0a0      	LDI  R26,LOW(__SRAM_START)
000204 e2b0      	LDI  R27,HIGH(__SRAM_START)
                 __CLEAR_SRAM:
000205 93ed      	ST   X+,R30
000206 9701      	SBIW R24,1
000207 f7e9      	BRNE __CLEAR_SRAM
                 
                 ;GLOBAL VARIABLES INITIALIZATION
000208 e2e8      	LDI  R30,LOW(__GLOBAL_INI_TBL*2)
000209 e0f3      	LDI  R31,HIGH(__GLOBAL_INI_TBL*2)
                 __GLOBAL_INI_NEXT:
00020a 9185      	LPM  R24,Z+
00020b 9195      	LPM  R25,Z+
00020c 9700      	SBIW R24,0
00020d f061      	BREQ __GLOBAL_INI_END
00020e 91a5      	LPM  R26,Z+
00020f 91b5      	LPM  R27,Z+
000210 9005      	LPM  R0,Z+
000211 9015      	LPM  R1,Z+
000212 01bf      	MOVW R22,R30
000213 01f0      	MOVW R30,R0
                 __GLOBAL_INI_LOOP:
000214 9005      	LPM  R0,Z+
000215 920d      	ST   X+,R0
000216 9701      	SBIW R24,1
000217 f7e1      	BRNE __GLOBAL_INI_LOOP
000218 01fb      	MOVW R30,R22
000219 cff0      	RJMP __GLOBAL_INI_NEXT
                 __GLOBAL_INI_END:
                 
00021a bf8b      	OUT  RAMPZ,R24
                 
                 ;GPIO0-GPIO15 INITIALIZATION
00021b e0e0      	LDI  R30,__GPIO0_INIT
00021c b9e0      	OUT  GPIO0,R30
                 	;__GPIO1_INIT = __GPIO0_INIT
00021d b9e1      	OUT  GPIO1,R30
                 	;__GPIO2_INIT = __GPIO0_INIT
00021e b9e2      	OUT  GPIO2,R30
                 	;__GPIO3_INIT = __GPIO0_INIT
00021f b9e3      	OUT  GPIO3,R30
                 	;__GPIO4_INIT = __GPIO0_INIT
000220 b9e4      	OUT  GPIO4,R30
                 	;__GPIO5_INIT = __GPIO0_INIT
000221 b9e5      	OUT  GPIO5,R30
                 	;__GPIO6_INIT = __GPIO0_INIT
000222 b9e6      	OUT  GPIO6,R30
                 	;__GPIO7_INIT = __GPIO0_INIT
000223 b9e7      	OUT  GPIO7,R30
                 	;__GPIO8_INIT = __GPIO0_INIT
000224 b9e8      	OUT  GPIO8,R30
                 	;__GPIO9_INIT = __GPIO0_INIT
000225 b9e9      	OUT  GPIO9,R30
                 	;__GPIO10_INIT = __GPIO0_INIT
000226 b9ea      	OUT  GPIO10,R30
                 	;__GPIO11_INIT = __GPIO0_INIT
000227 b9eb      	OUT  GPIO11,R30
                 	;__GPIO12_INIT = __GPIO0_INIT
000228 b9ec      	OUT  GPIO12,R30
                 	;__GPIO13_INIT = __GPIO0_INIT
000229 b9ed      	OUT  GPIO13,R30
                 	;__GPIO14_INIT = __GPIO0_INIT
00022a b9ee      	OUT  GPIO14,R30
                 	;__GPIO15_INIT = __GPIO0_INIT
00022b b9ef      	OUT  GPIO15,R30
                 
                 ;GLOBAL REGISTER VARIABLES INITIALIZATION
00022c e0e1      	LDI  R30,__R2_INIT
00022d 2e2e      	MOV  R2,R30
00022e e0e0      	LDI  R30,__R3_INIT
00022f 2e3e      	MOV  R3,R30
000230 e0e1      	LDI  R30,__R4_INIT
000231 2e4e      	MOV  R4,R30
000232 e0e0      	LDI  R30,__R5_INIT
000233 2e5e      	MOV  R5,R30
                 	;__R6_INIT = __R5_INIT
000234 2e6e      	MOV  R6,R30
                 	;__R7_INIT = __R5_INIT
000235 2e7e      	MOV  R7,R30
                 	;__R8_INIT = __R5_INIT
000236 2e8e      	MOV  R8,R30
                 	;__R9_INIT = __R5_INIT
000237 2e9e      	MOV  R9,R30
                 	;__R10_INIT = __R5_INIT
000238 2eae      	MOV  R10,R30
                 	;__R11_INIT = __R5_INIT
000239 2ebe      	MOV  R11,R30
                 	;__R12_INIT = __R5_INIT
00023a 2ece      	MOV  R12,R30
                 	;__R13_INIT = __R5_INIT
00023b 2ede      	MOV  R13,R30
                 
                 ;HARDWARE STACK POINTER INITIALIZATION
00023c efef      	LDI  R30,LOW(__SRAM_END-__HEAP_SIZE)
00023d bfed      	OUT  SPL,R30
00023e e2ef      	LDI  R30,HIGH(__SRAM_END-__HEAP_SIZE)
00023f bfee      	OUT  SPH,R30
                 
                 ;DATA STACK POINTER INITIALIZATION
000240 e0c0      	LDI  R28,LOW(__SRAM_START+__DSTACK_SIZE)
000241 e2d4      	LDI  R29,HIGH(__SRAM_START+__DSTACK_SIZE)
                 
000242 940c 0997 	JMP  _main
                 
                 	.ESEG
                 	.ORG 0
                 
                 	.DSEG
                 	.ORG 0x2400
                 
                 	.CSEG
                 ;/*****************************************************
                 ;This program was produced by the
                 ;CodeWizardAVR V2.05.0 Professional
                 ;Automatic Program Generator
                 ; Copyright 1998-2010 Pavel Haiduc, HP InfoTech s.r.l.
                 ;http://www.hpinfotech.com
                 ;
                 ;Project :
                 ;Version :
                 ;Date    : 2014-01-27
                 ;Author  : NeVaDa
                 ;Company :
                 ;Comments:
                 ;
                 ;
                 ;Chip type               : ATxmega32A4
                 ;Program type            : Application
                 ;AVR Core Clock frequency: 2.000000 MHz
                 ;Memory model            : Small
                 ;Data Stack size         : 1024
                 ;*****************************************************/
                 ;
                 ;// I/O Registers definitions
                 ;#include <io.h>
                 ;
                 ;// Standard Input/Output functions
                 ;#include <stdio.h>
                 ;#include <delay.h>
                 ;#include <stdio.h>
                 ;#include <string.h>
                 ;
                 ;// Declare your global variables here
                 ;// Array of character addresses in MAX7456
                 ;const char OSDchr[256]={  0xF2,  0xF1,  0xF0,  0xEF, 0xEE,  0xED, 0xF3,            // 0-6 progress bar
                 ;  0xFB,0xA9,0xAA,0xAB,0xAC,0xAD,0xAE,0,0,0,0,0,0,0,0,0,0,0,0,0,0,0,0,0,0,0,0,      // 7-33
                 ;  0x48, 0,0,0,0, 0x46,0x3F,0x40, 0,0, 0x45,0x49,0x41,0x47,                         // 34; 35-38; 39-41; 42-43; 44-47
                 ;  0x0A, 0x01, 0x02, 0x03, 0x04, 0x05, 0x06, 0x07, 0x08, 0x09, 0x44, 0x43, 0x4A,    // 48-60
                 ;  0, 0x4B, 0x42, 0x4C,                                                             // 61; 62-64
                 ;  0x0B, 0x0C, 0x0D, 0x0E, 0x0F, 0x10, 0x11, 0x12, 0x13, 0x14, 0x15, 0x16, 0x17,    // 65-77  A-M
                 ;  0x18, 0x19, 0x1A, 0x1B, 0x1C, 0x1D, 0x1E, 0x1F, 0x20, 0x21, 0x22, 0x23, 0x24,    // 78-90  N-Z
                 ;  0, 0, 0, 0, 0, 0,                                                                // 91-96
                 ;  0x25, 0x26, 0x27, 0x28, 0x29, 0x2A, 0x2B, 0x2C, 0x2D, 0x2E, 0x2F, 0x30, 0x31,    // 97-109   a-m
                 ;  0x32, 0x33, 0x34, 0x35, 0x36, 0x37, 0x38, 0x39, 0x3A, 0x3B, 0x3C, 0x3D, 0x3E     // 110-122  n-z
                 ;};
                 
                 	.DSEG
                 ;int col_pointer=1, row_pointer=1, title_pointer;
                 ;int ten_ms;
                 ;
                 ;char ch[30]="";
                 ;unsigned char a,b,c,d;
                 ;long int sum;
                 ;bit flag_com=0;
                 ;
                 ;//////////////////////////////////////////////////////////////encorder///////////////////////////////////////////////////////////////////
                 ;#define SELECT_MDR0 0b00001000     // Select MDR0
                 ;#define SELECT_MDR1 0b00010000     // Select MDR1
                 ;#define SELECT_DTR  0b00011000     // Select DTR
                 ;#define SELECT_CNTR 0b00100000     // Select CNTR
                 ;#define SELECT_OTR  0b00101000     // Select OTR
                 ;#define SELECT_STR  0b00110000     // Select STR
                 ;
                 ;#define CLR_REG     0b00000000     // CLR  register
                 ;#define RD_REG      0b01000000     // RD   register
                 ;#define WR_REG      0b10000000     // WR   register
                 ;#define LOAD_REG    0b11000000     // LOAD register
                 ;#define NON_QUAD            0b00000000      // non-quadrature counter mode.
                 ;#define X1_QUAD             0b00000001      // x1 quadrature counter mode.
                 ;#define X2_QUAD             0b00000010      // x2 quadrature counter mode.
                 ;#define X4_QUAD             0b00000011      // x4 quadrature counter mode.
                 ;#define FREE_RUN            0b00000000      // free-running count mode.
                 ;#define SINGLE_CYCLE        0b00000100      // single-cycle count mode.
                 ;#define RANGE_LIMIT         0b00001000      // range-limit count mode.
                 ;#define MODULO_N            0b00001100      // modulo-n count mode.
                 ;#define DISABLE_INDEX       0b00000000      // disable index.
                 ;#define INDEX_AS_LOAD_CNTR  0b00010000      // configure index as the "load CNTR" input(clears CNTR to 0).
                 ;#define INDEX_AS_RESET_CNTR 0b00100000      // configure index as the "reset CNTR" input(clears CNTR to 0).
                 ;#define INDEX_AS_LOAD_OTR   0b00110000      // configure index as the "load OTR" input(transfer CNTR to OTR).
                 ;#define ASYCHRONOUS_INDEX   0b00000000      // Asynchronous index
                 ;#define SYNCHRONOUS_INDEX   0b01000000      // Synchoronous index
                 ;#define FILTER_CDF_1        0b00000000      // Filter clock division factor = 1
                 ;#define FILTER_CDF_2        0b10000000      // Filter clock division factor = 2
                 ;#define FOUR_BYTE_COUNT_MODE    0b00000000       // 4-byte counter mode
                 ;#define THREE_BYTE_COUNT_MODE   0b00000001       // 3-byte counter mode
                 ;#define TWO_BYTE_COUNT_MODE     0b00000010       // 2-byte counter mode
                 ;#define ENABLE_COUNTING         0b00000000       // Enable counting
                 ;#define DISABLE_COUNTING        0b00000100       // Disable counting
                 ;#define FLAG_ON_IDX             0b00010000       // FLAG on IDX (B4 of STR)
                 ;#define FLAG_ON_CMP             0b00100000       // FLAG on CMP (B5 of STR)
                 ;#define FLAG_ON_BW              0b01000000       // FLAG on BW (B6 of STR)
                 ;#define FLAG_ON_CY              0b10000000       // FLAG on CY (B7 of STR)
                 ;#define LS7366_SS_H_L  PORTD.OUT = 0x00;    // Device Select or Start
                 ;#define LS7366_SS_L_H  PORTD.OUT = 0x10;    // Device Unselect or End
                 ;////////////////////////////////////////////////////////////////////////////////////////////////////////////////////////////////////////////////////
                 ;// System Clocks initialization
                 ;
                 ;
                 ;void system_clocks_init(void)
                 ; 0000 0061 {
                 
                 	.CSEG
                 _system_clocks_init:
                 ; 0000 0062 unsigned char n,s;
                 ; 0000 0063 
                 ; 0000 0064 // Optimize for speed
                 ; 0000 0065 #pragma optsize-
                 ; 0000 0066 // Save interrupts enabled/disabled state
                 ; 0000 0067 s=SREG;
000244 931a      	ST   -Y,R17
000245 930a      	ST   -Y,R16
                 ;	n -> R17
                 ;	s -> R16
000246 b70f      	IN   R16,63
                 ; 0000 0068 // Disable interrupts
                 ; 0000 0069 #asm("cli")
000247 94f8      	cli
                 ; 0000 006A 
                 ; 0000 006B // Internal 2 MHz RC oscillator initialization
                 ; 0000 006C // Enable the internal 2 MHz RC oscillator
                 ; 0000 006D OSC.CTRL|=OSC_RC2MEN_bm;
000248 91e0 0050 	LDS  R30,80
00024a 60e1      	ORI  R30,1
00024b 93e0 0050 	STS  80,R30
                 ; 0000 006E 
                 ; 0000 006F // System Clock prescaler A division factor: 1
                 ; 0000 0070 // System Clock prescalers B & C division factors: B:1, C:1
                 ; 0000 0071 // ClkPer4: 2000.000 kHz
                 ; 0000 0072 // ClkPer2: 2000.000 kHz
                 ; 0000 0073 // ClkPer:  2000.000 kHz
                 ; 0000 0074 // ClkCPU:  2000.000 kHz
                 ; 0000 0075 n=(CLK.PSCTRL & (~(CLK_PSADIV_gm | CLK_PSBCDIV1_bm | CLK_PSBCDIV0_bm))) |
                 ; 0000 0076 	CLK_PSADIV_1_gc | CLK_PSBCDIV_1_1_gc;
00024d 91e0 0041 	LDS  R30,65
00024f 78e0      	ANDI R30,LOW(0x80)
000250 2f1e      	MOV  R17,R30
                 ; 0000 0077 CCP=CCP_IOREG_gc;
000251 ede8      	LDI  R30,LOW(216)
000252 bfe4      	OUT  0x34,R30
                 ; 0000 0078 CLK.PSCTRL=n;
000253 9310 0041 	STS  65,R17
                 ; 0000 0079 
                 ; 0000 007A // Disable the autocalibration of the internal 2 MHz RC oscillator
                 ; 0000 007B DFLLRC2M.CTRL&= ~DFLL_ENABLE_bm;
000255 91e0 0068 	LDS  R30,104
000257 7fee      	ANDI R30,0xFE
000258 93e0 0068 	STS  104,R30
                 ; 0000 007C 
                 ; 0000 007D // Wait for the internal 2 MHz RC oscillator to stabilize
                 ; 0000 007E while ((OSC.STATUS & OSC_RC2MRDY_bm)==0);
                 _0x4:
00025a 91e0 0051 	LDS  R30,81
00025c 70e1      	ANDI R30,LOW(0x1)
00025d f3e1      	BREQ _0x4
                 ; 0000 007F 
                 ; 0000 0080 // Select the system clock source: 2 MHz Internal RC Osc.
                 ; 0000 0081 n=(CLK.CTRL & (~CLK_SCLKSEL_gm)) | CLK_SCLKSEL_RC2M_gc;
00025e 91e0 0040 	LDS  R30,64
000260 7fe8      	ANDI R30,LOW(0xF8)
000261 2f1e      	MOV  R17,R30
                 ; 0000 0082 CCP=CCP_IOREG_gc;
000262 ede8      	LDI  R30,LOW(216)
000263 bfe4      	OUT  0x34,R30
                 ; 0000 0083 CLK.CTRL=n;
000264 9310 0040 	STS  64,R17
                 ; 0000 0084 
                 ; 0000 0085 // Disable the unused oscillators: 32 MHz, 32 kHz, external clock/crystal oscillator, PLL
                 ; 0000 0086 OSC.CTRL&= ~(OSC_RC32MEN_bm | OSC_RC32KEN_bm | OSC_XOSCEN_bm | OSC_PLLEN_bm);
000266 91e0 0050 	LDS  R30,80
000268 7ee1      	ANDI R30,LOW(0xE1)
000269 93e0 0050 	STS  80,R30
                 ; 0000 0087 
                 ; 0000 0088 // Peripheral Clock output: Disabled
                 ; 0000 0089 PORTCFG.CLKEVOUT=(PORTCFG.CLKEVOUT & (~PORTCFG_CLKOUT_gm)) | PORTCFG_CLKOUT_OFF_gc;
00026b 91e0 00b4 	LDS  R30,180
00026d 7fec      	ANDI R30,LOW(0xFC)
00026e 93e0 00b4 	STS  180,R30
                 ; 0000 008A 
                 ; 0000 008B // Restore interrupts enabled/disabled state
                 ; 0000 008C SREG=s;
000270 bf0f      	OUT  0x3F,R16
                 ; 0000 008D // Restore optimization for size if needed
                 ; 0000 008E #pragma optsize_default
                 ; 0000 008F }
000271 c4e4      	RJMP _0x20A0007
                 ;
                 ;// Watchdog Timer initialization
                 ;void watchdog_init(void)
                 ; 0000 0093 {
                 _watchdog_init:
                 ; 0000 0094 unsigned char s,n;
                 ; 0000 0095 
                 ; 0000 0096 // Optimize for speed
                 ; 0000 0097 #pragma optsize-
                 ; 0000 0098 // Save interrupts enabled/disabled state
                 ; 0000 0099 s=SREG;
000272 931a      	ST   -Y,R17
000273 930a      	ST   -Y,R16
                 ;	s -> R17
                 ;	n -> R16
000274 b71f      	IN   R17,63
                 ; 0000 009A // Disable interrupts
                 ; 0000 009B #asm("cli")
000275 94f8      	cli
                 ; 0000 009C 
                 ; 0000 009D // Watchdog Timer: Off
                 ; 0000 009E n=(WDT.CTRL & (~WDT_ENABLE_bm)) | WDT_CEN_bm;
000276 91e0 0080 	LDS  R30,128
000278 7fed      	ANDI R30,0xFD
000279 60e1      	ORI  R30,1
00027a 2f0e      	MOV  R16,R30
                 ; 0000 009F CCP=CCP_IOREG_gc;
00027b ede8      	LDI  R30,LOW(216)
00027c bfe4      	OUT  0x34,R30
                 ; 0000 00A0 WDT.CTRL=n;
00027d 9300 0080 	STS  128,R16
                 ; 0000 00A1 // Watchdog window mode: Off
                 ; 0000 00A2 n=(WDT.WINCTRL & (~WDT_WEN_bm)) | WDT_WCEN_bm;
00027f 91e0 0081 	LDS  R30,129
000281 7fed      	ANDI R30,0xFD
000282 60e1      	ORI  R30,1
000283 2f0e      	MOV  R16,R30
                 ; 0000 00A3 CCP=CCP_IOREG_gc;
000284 ede8      	LDI  R30,LOW(216)
000285 bfe4      	OUT  0x34,R30
                 ; 0000 00A4 WDT.WINCTRL=n;
000286 9300 0081 	STS  129,R16
                 ; 0000 00A5 
                 ; 0000 00A6 // Restore interrupts enabled/disabled state
                 ; 0000 00A7 SREG=s;
000288 bf1f      	OUT  0x3F,R17
                 ; 0000 00A8 // Restore optimization for size if needed
                 ; 0000 00A9 #pragma optsize_default
                 ; 0000 00AA }
000289 c4cc      	RJMP _0x20A0007
                 ;
                 ;// Event System initialization
                 ;void event_system_init(void)
                 ; 0000 00AE {
                 _event_system_init:
                 ; 0000 00AF // Event System Channel 0 source: None
                 ; 0000 00B0 EVSYS.CH0MUX=EVSYS_CHMUX_OFF_gc;
00028a e0e0      	LDI  R30,LOW(0)
00028b 93e0 0180 	STS  384,R30
                 ; 0000 00B1 // Event System Channel 1 source: None
                 ; 0000 00B2 EVSYS.CH1MUX=EVSYS_CHMUX_OFF_gc;
00028d 93e0 0181 	STS  385,R30
                 ; 0000 00B3 // Event System Channel 2 source: None
                 ; 0000 00B4 EVSYS.CH2MUX=EVSYS_CHMUX_OFF_gc;
00028f 93e0 0182 	STS  386,R30
                 ; 0000 00B5 // Event System Channel 3 source: None
                 ; 0000 00B6 EVSYS.CH3MUX=EVSYS_CHMUX_OFF_gc;
000291 93e0 0183 	STS  387,R30
                 ; 0000 00B7 // Event System Channel 4 source: None
                 ; 0000 00B8 EVSYS.CH4MUX=EVSYS_CHMUX_OFF_gc;
000293 93e0 0184 	STS  388,R30
                 ; 0000 00B9 // Event System Channel 5 source: None
                 ; 0000 00BA EVSYS.CH5MUX=EVSYS_CHMUX_OFF_gc;
000295 93e0 0185 	STS  389,R30
                 ; 0000 00BB // Event System Channel 6 source: None
                 ; 0000 00BC EVSYS.CH6MUX=EVSYS_CHMUX_OFF_gc;
000297 93e0 0186 	STS  390,R30
                 ; 0000 00BD // Event System Channel 7 source: None
                 ; 0000 00BE EVSYS.CH7MUX=EVSYS_CHMUX_OFF_gc;
000299 93e0 0187 	STS  391,R30
                 ; 0000 00BF 
                 ; 0000 00C0 // Event System Channel 0 Digital Filter Coefficient: 1 Sample
                 ; 0000 00C1 EVSYS.CH0CTRL=(EVSYS.CH0CTRL & (~(EVSYS_QDIRM_gm | EVSYS_QDIEN_bm | EVSYS_QDEN_bm | EVSYS_DIGFILT_gm))) |
                 ; 0000 00C2 	EVSYS_DIGFILT_1SAMPLE_gc;
00029b 91e0 0188 	LDS  R30,392
00029d 78e0      	ANDI R30,LOW(0x80)
00029e 93e0 0188 	STS  392,R30
                 ; 0000 00C3 // Event System Channel 1 Digital Filter Coefficient: 1 Sample
                 ; 0000 00C4 EVSYS.CH1CTRL=EVSYS_DIGFILT_1SAMPLE_gc;
0002a0 e0e0      	LDI  R30,LOW(0)
0002a1 93e0 0189 	STS  393,R30
                 ; 0000 00C5 // Event System Channel 2 Digital Filter Coefficient: 1 Sample
                 ; 0000 00C6 EVSYS.CH2CTRL=(EVSYS.CH2CTRL & (~(EVSYS_QDIRM_gm | EVSYS_QDIEN_bm | EVSYS_QDEN_bm | EVSYS_DIGFILT_gm))) |
                 ; 0000 00C7 	EVSYS_DIGFILT_1SAMPLE_gc;
0002a3 91e0 018a 	LDS  R30,394
0002a5 78e0      	ANDI R30,LOW(0x80)
0002a6 93e0 018a 	STS  394,R30
                 ; 0000 00C8 // Event System Channel 3 Digital Filter Coefficient: 1 Sample
                 ; 0000 00C9 EVSYS.CH3CTRL=EVSYS_DIGFILT_1SAMPLE_gc;
0002a8 e0e0      	LDI  R30,LOW(0)
0002a9 93e0 018b 	STS  395,R30
                 ; 0000 00CA // Event System Channel 4 Digital Filter Coefficient: 1 Sample
                 ; 0000 00CB EVSYS.CH4CTRL=(EVSYS.CH4CTRL & (~(EVSYS_QDIRM_gm | EVSYS_QDIEN_bm | EVSYS_QDEN_bm | EVSYS_DIGFILT_gm))) |
                 ; 0000 00CC 	EVSYS_DIGFILT_1SAMPLE_gc;
0002ab 91e0 018c 	LDS  R30,396
0002ad 78e0      	ANDI R30,LOW(0x80)
0002ae 93e0 018c 	STS  396,R30
                 ; 0000 00CD // Event System Channel 5 Digital Filter Coefficient: 1 Sample
                 ; 0000 00CE EVSYS.CH5CTRL=EVSYS_DIGFILT_1SAMPLE_gc;
0002b0 e0e0      	LDI  R30,LOW(0)
0002b1 93e0 018d 	STS  397,R30
                 ; 0000 00CF // Event System Channel 6 Digital Filter Coefficient: 1 Sample
                 ; 0000 00D0 EVSYS.CH6CTRL=EVSYS_DIGFILT_1SAMPLE_gc;
0002b3 93e0 018e 	STS  398,R30
                 ; 0000 00D1 // Event System Channel 7 Digital Filter Coefficient: 1 Sample
                 ; 0000 00D2 EVSYS.CH7CTRL=EVSYS_DIGFILT_1SAMPLE_gc;
0002b5 93e0 018f 	STS  399,R30
                 ; 0000 00D3 
                 ; 0000 00D4 // Event System Channel 0 output: Disabled
                 ; 0000 00D5 // Note: the correct direction for the Event System Channel 0 output
                 ; 0000 00D6 // is configured in the ports_init function
                 ; 0000 00D7 PORTCFG.CLKEVOUT=(PORTCFG.CLKEVOUT & (~PORTCFG_EVOUT_gm)) | PORTCFG_EVOUT_OFF_gc;
0002b7 91e0 00b4 	LDS  R30,180
0002b9 7cef      	ANDI R30,LOW(0xCF)
0002ba 93e0 00b4 	STS  180,R30
                 ; 0000 00D8 }
0002bc 9508      	RET
                 ;
                 ;// Ports initialization
                 ;void ports_init(void)
                 ; 0000 00DC {
                 _ports_init:
                 ; 0000 00DD // PORTA initialization
                 ; 0000 00DE // OUT register
                 ; 0000 00DF PORTA.OUT=0x00;
0002bd e0e0      	LDI  R30,LOW(0)
0002be 93e0 0604 	STS  1540,R30
                 ; 0000 00E0 // Bit0: Input
                 ; 0000 00E1 // Bit1: Input
                 ; 0000 00E2 // Bit2: Input
                 ; 0000 00E3 // Bit3: Input
                 ; 0000 00E4 // Bit4: Input
                 ; 0000 00E5 // Bit5: Input
                 ; 0000 00E6 // Bit6: Input
                 ; 0000 00E7 // Bit7: Input
                 ; 0000 00E8 PORTA.DIR=0x00;
0002c0 93e0 0600 	STS  1536,R30
                 ; 0000 00E9 // Bit0 Output/Pull configuration: Totempole/No
                 ; 0000 00EA // Bit0 Input/Sense configuration: Sense both edges
                 ; 0000 00EB // Bit0 inverted: Off
                 ; 0000 00EC // Bit0 slew rate limitation: Off
                 ; 0000 00ED PORTA.PIN0CTRL=PORT_OPC_TOTEM_gc | PORT_ISC_BOTHEDGES_gc;
0002c2 93e0 0610 	STS  1552,R30
                 ; 0000 00EE // Bit1 Output/Pull configuration: Totempole/No
                 ; 0000 00EF // Bit1 Input/Sense configuration: Sense both edges
                 ; 0000 00F0 // Bit1 inverted: Off
                 ; 0000 00F1 // Bit1 slew rate limitation: Off
                 ; 0000 00F2 PORTA.PIN1CTRL=PORT_OPC_TOTEM_gc | PORT_ISC_BOTHEDGES_gc;
0002c4 93e0 0611 	STS  1553,R30
                 ; 0000 00F3 // Bit2 Output/Pull configuration: Totempole/No
                 ; 0000 00F4 // Bit2 Input/Sense configuration: Sense both edges
                 ; 0000 00F5 // Bit2 inverted: Off
                 ; 0000 00F6 // Bit2 slew rate limitation: Off
                 ; 0000 00F7 PORTA.PIN2CTRL=PORT_OPC_TOTEM_gc | PORT_ISC_BOTHEDGES_gc;
0002c6 93e0 0612 	STS  1554,R30
                 ; 0000 00F8 // Bit3 Output/Pull configuration: Totempole/No
                 ; 0000 00F9 // Bit3 Input/Sense configuration: Sense both edges
                 ; 0000 00FA // Bit3 inverted: Off
                 ; 0000 00FB // Bit3 slew rate limitation: Off
                 ; 0000 00FC PORTA.PIN3CTRL=PORT_OPC_TOTEM_gc | PORT_ISC_BOTHEDGES_gc;
0002c8 93e0 0613 	STS  1555,R30
                 ; 0000 00FD // Bit4 Output/Pull configuration: Totempole/No
                 ; 0000 00FE // Bit4 Input/Sense configuration: Sense both edges
                 ; 0000 00FF // Bit4 inverted: Off
                 ; 0000 0100 // Bit4 slew rate limitation: Off
                 ; 0000 0101 PORTA.PIN4CTRL=PORT_OPC_TOTEM_gc | PORT_ISC_BOTHEDGES_gc;
0002ca 93e0 0614 	STS  1556,R30
                 ; 0000 0102 // Bit5 Output/Pull configuration: Totempole/No
                 ; 0000 0103 // Bit5 Input/Sense configuration: Sense both edges
                 ; 0000 0104 // Bit5 inverted: Off
                 ; 0000 0105 // Bit5 slew rate limitation: Off
                 ; 0000 0106 PORTA.PIN5CTRL=PORT_OPC_TOTEM_gc | PORT_ISC_BOTHEDGES_gc;
0002cc 93e0 0615 	STS  1557,R30
                 ; 0000 0107 // Bit6 Output/Pull configuration: Totempole/No
                 ; 0000 0108 // Bit6 Input/Sense configuration: Sense both edges
                 ; 0000 0109 // Bit6 inverted: Off
                 ; 0000 010A // Bit6 slew rate limitation: Off
                 ; 0000 010B PORTA.PIN6CTRL=PORT_OPC_TOTEM_gc | PORT_ISC_BOTHEDGES_gc;
0002ce 93e0 0616 	STS  1558,R30
                 ; 0000 010C // Bit7 Output/Pull configuration: Totempole/No
                 ; 0000 010D // Bit7 Input/Sense configuration: Sense both edges
                 ; 0000 010E // Bit7 inverted: Off
                 ; 0000 010F // Bit7 slew rate limitation: Off
                 ; 0000 0110 PORTA.PIN7CTRL=PORT_OPC_TOTEM_gc | PORT_ISC_BOTHEDGES_gc;
0002d0 93e0 0617 	STS  1559,R30
                 ; 0000 0111 // Interrupt 0 level: Disabled
                 ; 0000 0112 // Interrupt 1 level: Disabled
                 ; 0000 0113 PORTA.INTCTRL=(PORTA.INTCTRL & (~(PORT_INT1LVL_gm | PORT_INT0LVL_gm))) |
                 ; 0000 0114 	PORT_INT1LVL_OFF_gc | PORT_INT0LVL_OFF_gc;
0002d2 91e0 0609 	LDS  R30,1545
0002d4 7fe0      	ANDI R30,LOW(0xF0)
0002d5 93e0 0609 	STS  1545,R30
                 ; 0000 0115 // Bit0 pin change interrupt 0: Off
                 ; 0000 0116 // Bit1 pin change interrupt 0: Off
                 ; 0000 0117 // Bit2 pin change interrupt 0: Off
                 ; 0000 0118 // Bit3 pin change interrupt 0: Off
                 ; 0000 0119 // Bit4 pin change interrupt 0: Off
                 ; 0000 011A // Bit5 pin change interrupt 0: Off
                 ; 0000 011B // Bit6 pin change interrupt 0: Off
                 ; 0000 011C // Bit7 pin change interrupt 0: Off
                 ; 0000 011D PORTA.INT0MASK=0x00;
0002d7 e0e0      	LDI  R30,LOW(0)
0002d8 93e0 060a 	STS  1546,R30
                 ; 0000 011E // Bit0 pin change interrupt 1: Off
                 ; 0000 011F // Bit1 pin change interrupt 1: Off
                 ; 0000 0120 // Bit2 pin change interrupt 1: Off
                 ; 0000 0121 // Bit3 pin change interrupt 1: Off
                 ; 0000 0122 // Bit4 pin change interrupt 1: Off
                 ; 0000 0123 // Bit5 pin change interrupt 1: Off
                 ; 0000 0124 // Bit6 pin change interrupt 1: Off
                 ; 0000 0125 // Bit7 pin change interrupt 1: Off
                 ; 0000 0126 PORTA.INT1MASK=0x00;
0002da 93e0 060b 	STS  1547,R30
                 ; 0000 0127 
                 ; 0000 0128 // PORTB initialization
                 ; 0000 0129 // OUT register
                 ; 0000 012A PORTB.OUT=0x00;
0002dc 93e0 0624 	STS  1572,R30
                 ; 0000 012B // Bit0: Input
                 ; 0000 012C // Bit1: Input
                 ; 0000 012D // Bit2: Input
                 ; 0000 012E // Bit3: Input
                 ; 0000 012F PORTB.DIR=0x00;
0002de 93e0 0620 	STS  1568,R30
                 ; 0000 0130 // Bit0 Output/Pull configuration: Totempole/No
                 ; 0000 0131 // Bit0 Input/Sense configuration: Sense both edges
                 ; 0000 0132 // Bit0 inverted: Off
                 ; 0000 0133 // Bit0 slew rate limitation: Off
                 ; 0000 0134 PORTB.PIN0CTRL=PORT_OPC_TOTEM_gc | PORT_ISC_BOTHEDGES_gc;
0002e0 93e0 0630 	STS  1584,R30
                 ; 0000 0135 // Bit1 Output/Pull configuration: Totempole/No
                 ; 0000 0136 // Bit1 Input/Sense configuration: Sense both edges
                 ; 0000 0137 // Bit1 inverted: Off
                 ; 0000 0138 // Bit1 slew rate limitation: Off
                 ; 0000 0139 PORTB.PIN1CTRL=PORT_OPC_TOTEM_gc | PORT_ISC_BOTHEDGES_gc;
0002e2 93e0 0631 	STS  1585,R30
                 ; 0000 013A // Bit2 Output/Pull configuration: Totempole/No
                 ; 0000 013B // Bit2 Input/Sense configuration: Sense both edges
                 ; 0000 013C // Bit2 inverted: Off
                 ; 0000 013D // Bit2 slew rate limitation: Off
                 ; 0000 013E PORTB.PIN2CTRL=PORT_OPC_TOTEM_gc | PORT_ISC_BOTHEDGES_gc;
0002e4 93e0 0632 	STS  1586,R30
                 ; 0000 013F // Bit3 Output/Pull configuration: Totempole/No
                 ; 0000 0140 // Bit3 Input/Sense configuration: Sense both edges
                 ; 0000 0141 // Bit3 inverted: Off
                 ; 0000 0142 // Bit3 slew rate limitation: Off
                 ; 0000 0143 PORTB.PIN3CTRL=PORT_OPC_TOTEM_gc | PORT_ISC_BOTHEDGES_gc;
0002e6 93e0 0633 	STS  1587,R30
                 ; 0000 0144 // Interrupt 0 level: Disabled
                 ; 0000 0145 // Interrupt 1 level: Disabled
                 ; 0000 0146 PORTB.INTCTRL=(PORTB.INTCTRL & (~(PORT_INT1LVL_gm | PORT_INT0LVL_gm))) |
                 ; 0000 0147 	PORT_INT1LVL_OFF_gc | PORT_INT0LVL_OFF_gc;
0002e8 91e0 0629 	LDS  R30,1577
0002ea 7fe0      	ANDI R30,LOW(0xF0)
0002eb 93e0 0629 	STS  1577,R30
                 ; 0000 0148 // Bit0 pin change interrupt 0: Off
                 ; 0000 0149 // Bit1 pin change interrupt 0: Off
                 ; 0000 014A // Bit2 pin change interrupt 0: Off
                 ; 0000 014B // Bit3 pin change interrupt 0: Off
                 ; 0000 014C PORTB.INT0MASK=0x00;
0002ed e0e0      	LDI  R30,LOW(0)
0002ee 93e0 062a 	STS  1578,R30
                 ; 0000 014D // Bit0 pin change interrupt 1: Off
                 ; 0000 014E // Bit1 pin change interrupt 1: Off
                 ; 0000 014F // Bit2 pin change interrupt 1: Off
                 ; 0000 0150 // Bit3 pin change interrupt 1: Off
                 ; 0000 0151 PORTB.INT1MASK=0x00;
0002f0 93e0 062b 	STS  1579,R30
                 ; 0000 0152 
                 ; 0000 0153 // PORTC initialization
                 ; 0000 0154 // OUT register
                 ; 0000 0155 PORTC.OUT=0x10;
0002f2 e1e0      	LDI  R30,LOW(16)
0002f3 93e0 0644 	STS  1604,R30
                 ; 0000 0156 // Bit0: Input
                 ; 0000 0157 // Bit1: Input
                 ; 0000 0158 // Bit2: Input
                 ; 0000 0159 // Bit3: Input
                 ; 0000 015A // Bit4: Output
                 ; 0000 015B // Bit5: Output
                 ; 0000 015C // Bit6: Input
                 ; 0000 015D // Bit7: Output
                 ; 0000 015E PORTC.DIR=0xB0;
0002f5 ebe0      	LDI  R30,LOW(176)
0002f6 93e0 0640 	STS  1600,R30
                 ; 0000 015F // Bit0 Output/Pull configuration: Totempole/No
                 ; 0000 0160 // Bit0 Input/Sense configuration: Sense both edges
                 ; 0000 0161 // Bit0 inverted: Off
                 ; 0000 0162 // Bit0 slew rate limitation: Off
                 ; 0000 0163 PORTC.PIN0CTRL=PORT_OPC_TOTEM_gc | PORT_ISC_BOTHEDGES_gc;
0002f8 e0e0      	LDI  R30,LOW(0)
0002f9 93e0 0650 	STS  1616,R30
                 ; 0000 0164 // Bit1 Output/Pull configuration: Totempole/No
                 ; 0000 0165 // Bit1 Input/Sense configuration: Sense both edges
                 ; 0000 0166 // Bit1 inverted: Off
                 ; 0000 0167 // Bit1 slew rate limitation: Off
                 ; 0000 0168 PORTC.PIN1CTRL=PORT_OPC_TOTEM_gc | PORT_ISC_BOTHEDGES_gc;
0002fb 93e0 0651 	STS  1617,R30
                 ; 0000 0169 // Bit2 Output/Pull configuration: Totempole/No
                 ; 0000 016A // Bit2 Input/Sense configuration: Sense both edges
                 ; 0000 016B // Bit2 inverted: Off
                 ; 0000 016C // Bit2 slew rate limitation: Off
                 ; 0000 016D PORTC.PIN2CTRL=PORT_OPC_TOTEM_gc | PORT_ISC_BOTHEDGES_gc;
0002fd 93e0 0652 	STS  1618,R30
                 ; 0000 016E // Bit3 Output/Pull configuration: Totempole/No
                 ; 0000 016F // Bit3 Input/Sense configuration: Sense both edges
                 ; 0000 0170 // Bit3 inverted: Off
                 ; 0000 0171 // Bit3 slew rate limitation: Off
                 ; 0000 0172 PORTC.PIN3CTRL=PORT_OPC_TOTEM_gc | PORT_ISC_BOTHEDGES_gc;
0002ff 93e0 0653 	STS  1619,R30
                 ; 0000 0173 // Bit4 Output/Pull configuration: Totempole/No
                 ; 0000 0174 // Bit4 Input/Sense configuration: Sense both edges
                 ; 0000 0175 // Bit4 inverted: Off
                 ; 0000 0176 // Bit4 slew rate limitation: Off
                 ; 0000 0177 PORTC.PIN4CTRL=PORT_OPC_TOTEM_gc | PORT_ISC_BOTHEDGES_gc;
000301 93e0 0654 	STS  1620,R30
                 ; 0000 0178 // Bit5 Output/Pull configuration: Totempole/No
                 ; 0000 0179 // Bit5 Input/Sense configuration: Sense both edges
                 ; 0000 017A // Bit5 inverted: Off
                 ; 0000 017B // Bit5 slew rate limitation: Off
                 ; 0000 017C PORTC.PIN5CTRL=PORT_OPC_TOTEM_gc | PORT_ISC_BOTHEDGES_gc;
000303 93e0 0655 	STS  1621,R30
                 ; 0000 017D // Bit6 Output/Pull configuration: Totempole/No
                 ; 0000 017E // Bit6 Input/Sense configuration: Sense both edges
                 ; 0000 017F // Bit6 inverted: Off
                 ; 0000 0180 // Bit6 slew rate limitation: Off
                 ; 0000 0181 //PORTC.PIN6CTRL=PORT_OPC_TOTEM_gc | PORT_ISC_BOTHEDGES_gc;
                 ; 0000 0182 // Bit6 Output/Pull configuration: Totempole/Pull-up (on input)
                 ; 0000 0183 // Bit6 Input/Sense configuration: Sense both edges
                 ; 0000 0184 // Bit6 inverted: Off
                 ; 0000 0185 // Bit6 slew rate limitation: Off
                 ; 0000 0186 PORTC.PIN6CTRL=PORT_OPC_PULLUP_gc | PORT_ISC_BOTHEDGES_gc;
000305 e1e8      	LDI  R30,LOW(24)
000306 93e0 0656 	STS  1622,R30
                 ; 0000 0187 
                 ; 0000 0188 // Bit7 Output/Pull configuration: Totempole/No
                 ; 0000 0189 // Bit7 Input/Sense configuration: Sense both edges
                 ; 0000 018A // Bit7 inverted: Off
                 ; 0000 018B // Bit7 slew rate limitation: Off
                 ; 0000 018C PORTC.PIN7CTRL=PORT_OPC_TOTEM_gc | PORT_ISC_BOTHEDGES_gc;
000308 e0e0      	LDI  R30,LOW(0)
000309 93e0 0657 	STS  1623,R30
                 ; 0000 018D // Interrupt 0 level: Disabled
                 ; 0000 018E // Interrupt 1 level: Disabled
                 ; 0000 018F PORTC.INTCTRL=(PORTC.INTCTRL & (~(PORT_INT1LVL_gm | PORT_INT0LVL_gm))) |
                 ; 0000 0190 	PORT_INT1LVL_OFF_gc | PORT_INT0LVL_OFF_gc;
00030b 91e0 0649 	LDS  R30,1609
00030d 7fe0      	ANDI R30,LOW(0xF0)
00030e 93e0 0649 	STS  1609,R30
                 ; 0000 0191 // Bit0 pin change interrupt 0: Off
                 ; 0000 0192 // Bit1 pin change interrupt 0: Off
                 ; 0000 0193 // Bit2 pin change interrupt 0: Off
                 ; 0000 0194 // Bit3 pin change interrupt 0: Off
                 ; 0000 0195 // Bit4 pin change interrupt 0: Off
                 ; 0000 0196 // Bit5 pin change interrupt 0: Off
                 ; 0000 0197 // Bit6 pin change interrupt 0: Off
                 ; 0000 0198 // Bit7 pin change interrupt 0: Off
                 ; 0000 0199 PORTC.INT0MASK=0x00;
000310 e0e0      	LDI  R30,LOW(0)
000311 93e0 064a 	STS  1610,R30
                 ; 0000 019A // Bit0 pin change interrupt 1: Off
                 ; 0000 019B // Bit1 pin change interrupt 1: Off
                 ; 0000 019C // Bit2 pin change interrupt 1: Off
                 ; 0000 019D // Bit3 pin change interrupt 1: Off
                 ; 0000 019E // Bit4 pin change interrupt 1: Off
                 ; 0000 019F // Bit5 pin change interrupt 1: Off
                 ; 0000 01A0 // Bit6 pin change interrupt 1: Off
                 ; 0000 01A1 // Bit7 pin change interrupt 1: Off
                 ; 0000 01A2 PORTC.INT1MASK=0x00;
000313 93e0 064b 	STS  1611,R30
                 ; 0000 01A3 
                 ; 0000 01A4 // PORTD initialization
                 ; 0000 01A5 // OUT register
                 ; 0000 01A6 PORTD.OUT=0x18;
000315 e1e8      	LDI  R30,LOW(24)
000316 93e0 0664 	STS  1636,R30
                 ; 0000 01A7 // Bit0: Input
                 ; 0000 01A8 // Bit1: Input
                 ; 0000 01A9 // Bit2: Input
                 ; 0000 01AA // Bit3: Output
                 ; 0000 01AB // Bit4: Output
                 ; 0000 01AC // Bit5: Output
                 ; 0000 01AD // Bit6: Input
                 ; 0000 01AE // Bit7: Output
                 ; 0000 01AF PORTD.DIR=0xB8;
000318 ebe8      	LDI  R30,LOW(184)
000319 93e0 0660 	STS  1632,R30
                 ; 0000 01B0 // Bit0 Output/Pull configuration: Totempole/No
                 ; 0000 01B1 // Bit0 Input/Sense configuration: Sense both edges
                 ; 0000 01B2 // Bit0 inverted: Off
                 ; 0000 01B3 // Bit0 slew rate limitation: Off
                 ; 0000 01B4 PORTD.PIN0CTRL=PORT_OPC_TOTEM_gc | PORT_ISC_BOTHEDGES_gc;
00031b e0e0      	LDI  R30,LOW(0)
00031c 93e0 0670 	STS  1648,R30
                 ; 0000 01B5 // Bit1 Output/Pull configuration: Totempole/No
                 ; 0000 01B6 // Bit1 Input/Sense configuration: Sense both edges
                 ; 0000 01B7 // Bit1 inverted: Off
                 ; 0000 01B8 // Bit1 slew rate limitation: Off
                 ; 0000 01B9 PORTD.PIN1CTRL=PORT_OPC_TOTEM_gc | PORT_ISC_BOTHEDGES_gc;
00031e 93e0 0671 	STS  1649,R30
                 ; 0000 01BA // Bit2 Output/Pull configuration: Totempole/No
                 ; 0000 01BB // Bit2 Input/Sense configuration: Sense both edges
                 ; 0000 01BC // Bit2 inverted: Off
                 ; 0000 01BD // Bit2 slew rate limitation: Off
                 ; 0000 01BE PORTD.PIN2CTRL=PORT_OPC_TOTEM_gc | PORT_ISC_BOTHEDGES_gc;
000320 93e0 0672 	STS  1650,R30
                 ; 0000 01BF // Bit3 Output/Pull configuration: Totempole/No
                 ; 0000 01C0 // Bit3 Input/Sense configuration: Sense both edges
                 ; 0000 01C1 // Bit3 inverted: Off
                 ; 0000 01C2 // Bit3 slew rate limitation: Off
                 ; 0000 01C3 PORTD.PIN3CTRL=PORT_OPC_TOTEM_gc | PORT_ISC_BOTHEDGES_gc;
000322 93e0 0673 	STS  1651,R30
                 ; 0000 01C4 // Bit4 Output/Pull configuration: Totempole/No
                 ; 0000 01C5 // Bit4 Input/Sense configuration: Sense both edges
                 ; 0000 01C6 // Bit4 inverted: Off
                 ; 0000 01C7 // Bit4 slew rate limitation: Off
                 ; 0000 01C8 PORTD.PIN4CTRL=PORT_OPC_TOTEM_gc | PORT_ISC_BOTHEDGES_gc;
000324 93e0 0674 	STS  1652,R30
                 ; 0000 01C9 // Bit5 Output/Pull configuration: Totempole/No
                 ; 0000 01CA // Bit5 Input/Sense configuration: Sense both edges
                 ; 0000 01CB // Bit5 inverted: Off
                 ; 0000 01CC // Bit5 slew rate limitation: Off
                 ; 0000 01CD PORTD.PIN5CTRL=PORT_OPC_TOTEM_gc | PORT_ISC_BOTHEDGES_gc;
000326 93e0 0675 	STS  1653,R30
                 ; 0000 01CE // Bit6 Output/Pull configuration: Totempole/No
                 ; 0000 01CF // Bit6 Input/Sense configuration: Sense both edges
                 ; 0000 01D0 // Bit6 inverted: Off
                 ; 0000 01D1 // Bit6 slew rate limitation: Off
                 ; 0000 01D2 PORTD.PIN6CTRL=PORT_OPC_TOTEM_gc | PORT_ISC_BOTHEDGES_gc;
000328 93e0 0676 	STS  1654,R30
                 ; 0000 01D3 // Bit7 Output/Pull configuration: Totempole/No
                 ; 0000 01D4 // Bit7 Input/Sense configuration: Sense both edges
                 ; 0000 01D5 // Bit7 inverted: Off
                 ; 0000 01D6 // Bit7 slew rate limitation: Off
                 ; 0000 01D7 PORTD.PIN7CTRL=PORT_OPC_TOTEM_gc | PORT_ISC_BOTHEDGES_gc;
00032a 93e0 0677 	STS  1655,R30
                 ; 0000 01D8 // Interrupt 0 level: Disabled
                 ; 0000 01D9 // Interrupt 1 level: Disabled
                 ; 0000 01DA PORTD.INTCTRL=(PORTD.INTCTRL & (~(PORT_INT1LVL_gm | PORT_INT0LVL_gm))) |
                 ; 0000 01DB 	PORT_INT1LVL_OFF_gc | PORT_INT0LVL_OFF_gc;
00032c 91e0 0669 	LDS  R30,1641
00032e 7fe0      	ANDI R30,LOW(0xF0)
00032f 93e0 0669 	STS  1641,R30
                 ; 0000 01DC // Bit0 pin change interrupt 0: Off
                 ; 0000 01DD // Bit1 pin change interrupt 0: Off
                 ; 0000 01DE // Bit2 pin change interrupt 0: Off
                 ; 0000 01DF // Bit3 pin change interrupt 0: Off
                 ; 0000 01E0 // Bit4 pin change interrupt 0: Off
                 ; 0000 01E1 // Bit5 pin change interrupt 0: Off
                 ; 0000 01E2 // Bit6 pin change interrupt 0: Off
                 ; 0000 01E3 // Bit7 pin change interrupt 0: Off
                 ; 0000 01E4 PORTD.INT0MASK=0x00;
000331 e0e0      	LDI  R30,LOW(0)
000332 93e0 066a 	STS  1642,R30
                 ; 0000 01E5 // Bit0 pin change interrupt 1: Off
                 ; 0000 01E6 // Bit1 pin change interrupt 1: Off
                 ; 0000 01E7 // Bit2 pin change interrupt 1: Off
                 ; 0000 01E8 // Bit3 pin change interrupt 1: Off
                 ; 0000 01E9 // Bit4 pin change interrupt 1: Off
                 ; 0000 01EA // Bit5 pin change interrupt 1: Off
                 ; 0000 01EB // Bit6 pin change interrupt 1: Off
                 ; 0000 01EC // Bit7 pin change interrupt 1: Off
                 ; 0000 01ED PORTD.INT1MASK=0x00;
000334 93e0 066b 	STS  1643,R30
                 ; 0000 01EE 
                 ; 0000 01EF // PORTE initialization
                 ; 0000 01F0 // OUT register
                 ; 0000 01F1 PORTE.OUT=0x00;
000336 93e0 0684 	STS  1668,R30
                 ; 0000 01F2 // Bit0: Input
                 ; 0000 01F3 // Bit1: Input
                 ; 0000 01F4 // Bit2: Input
                 ; 0000 01F5 // Bit3: Input
                 ; 0000 01F6 PORTE.DIR=0x00;
000338 93e0 0680 	STS  1664,R30
                 ; 0000 01F7 // Bit0 Output/Pull configuration: Totempole/No
                 ; 0000 01F8 // Bit0 Input/Sense configuration: Sense both edges
                 ; 0000 01F9 // Bit0 inverted: Off
                 ; 0000 01FA // Bit0 slew rate limitation: Off
                 ; 0000 01FB PORTE.PIN0CTRL=PORT_OPC_TOTEM_gc | PORT_ISC_BOTHEDGES_gc;
00033a 93e0 0690 	STS  1680,R30
                 ; 0000 01FC // Bit1 Output/Pull configuration: Totempole/No
                 ; 0000 01FD // Bit1 Input/Sense configuration: Sense both edges
                 ; 0000 01FE // Bit1 inverted: Off
                 ; 0000 01FF // Bit1 slew rate limitation: Off
                 ; 0000 0200 PORTE.PIN1CTRL=PORT_OPC_TOTEM_gc | PORT_ISC_BOTHEDGES_gc;
00033c 93e0 0691 	STS  1681,R30
                 ; 0000 0201 // Bit2 Output/Pull configuration: Totempole/No
                 ; 0000 0202 // Bit2 Input/Sense configuration: Sense both edges
                 ; 0000 0203 // Bit2 inverted: Off
                 ; 0000 0204 // Bit2 slew rate limitation: Off
                 ; 0000 0205 PORTE.PIN2CTRL=PORT_OPC_TOTEM_gc | PORT_ISC_BOTHEDGES_gc;
00033e 93e0 0692 	STS  1682,R30
                 ; 0000 0206 // Bit3 Output/Pull configuration: Totempole/No
                 ; 0000 0207 // Bit3 Input/Sense configuration: Sense both edges
                 ; 0000 0208 // Bit3 inverted: Off
                 ; 0000 0209 // Bit3 slew rate limitation: Off
                 ; 0000 020A PORTE.PIN3CTRL=PORT_OPC_TOTEM_gc | PORT_ISC_BOTHEDGES_gc;
000340 93e0 0693 	STS  1683,R30
                 ; 0000 020B // Interrupt 0 level: Disabled
                 ; 0000 020C // Interrupt 1 level: Disabled
                 ; 0000 020D PORTE.INTCTRL=(PORTE.INTCTRL & (~(PORT_INT1LVL_gm | PORT_INT0LVL_gm))) |
                 ; 0000 020E 	PORT_INT1LVL_OFF_gc | PORT_INT0LVL_OFF_gc;
000342 91e0 0689 	LDS  R30,1673
000344 7fe0      	ANDI R30,LOW(0xF0)
000345 93e0 0689 	STS  1673,R30
                 ; 0000 020F // Bit0 pin change interrupt 0: Off
                 ; 0000 0210 // Bit1 pin change interrupt 0: Off
                 ; 0000 0211 // Bit2 pin change interrupt 0: Off
                 ; 0000 0212 // Bit3 pin change interrupt 0: Off
                 ; 0000 0213 PORTE.INT0MASK=0x00;
000347 e0e0      	LDI  R30,LOW(0)
000348 93e0 068a 	STS  1674,R30
                 ; 0000 0214 // Bit0 pin change interrupt 1: Off
                 ; 0000 0215 // Bit1 pin change interrupt 1: Off
                 ; 0000 0216 // Bit2 pin change interrupt 1: Off
                 ; 0000 0217 // Bit3 pin change interrupt 1: Off
                 ; 0000 0218 PORTE.INT1MASK=0x00;
00034a 93e0 068b 	STS  1675,R30
                 ; 0000 0219 
                 ; 0000 021A // PORTR initialization
                 ; 0000 021B // OUT register
                 ; 0000 021C PORTR.OUT=0x00;
00034c 93e0 07e4 	STS  2020,R30
                 ; 0000 021D // Bit0: Input
                 ; 0000 021E // Bit1: Input
                 ; 0000 021F PORTR.DIR=0x00;
00034e 93e0 07e0 	STS  2016,R30
                 ; 0000 0220 // Bit0 Output/Pull configuration: Totempole/No
                 ; 0000 0221 // Bit0 Input/Sense configuration: Sense both edges
                 ; 0000 0222 // Bit0 inverted: Off
                 ; 0000 0223 // Bit0 slew rate limitation: Off
                 ; 0000 0224 PORTR.PIN0CTRL=PORT_OPC_TOTEM_gc | PORT_ISC_BOTHEDGES_gc;
000350 93e0 07f0 	STS  2032,R30
                 ; 0000 0225 // Bit1 Output/Pull configuration: Totempole/No
                 ; 0000 0226 // Bit1 Input/Sense configuration: Sense both edges
                 ; 0000 0227 // Bit1 inverted: Off
                 ; 0000 0228 // Bit1 slew rate limitation: Off
                 ; 0000 0229 PORTR.PIN1CTRL=PORT_OPC_TOTEM_gc | PORT_ISC_BOTHEDGES_gc;
000352 93e0 07f1 	STS  2033,R30
                 ; 0000 022A // Interrupt 0 level: Disabled
                 ; 0000 022B // Interrupt 1 level: Disabled
                 ; 0000 022C PORTR.INTCTRL=(PORTR.INTCTRL & (~(PORT_INT1LVL_gm | PORT_INT0LVL_gm))) |
                 ; 0000 022D 	PORT_INT1LVL_OFF_gc | PORT_INT0LVL_OFF_gc;
000354 91e0 07e9 	LDS  R30,2025
000356 7fe0      	ANDI R30,LOW(0xF0)
000357 93e0 07e9 	STS  2025,R30
                 ; 0000 022E // Bit0 pin change interrupt 0: Off
                 ; 0000 022F // Bit1 pin change interrupt 0: Off
                 ; 0000 0230 PORTR.INT0MASK=0x00;
000359 e0e0      	LDI  R30,LOW(0)
00035a 93e0 07ea 	STS  2026,R30
                 ; 0000 0231 // Bit0 pin change interrupt 1: Off
                 ; 0000 0232 // Bit1 pin change interrupt 1: Off
                 ; 0000 0233 PORTR.INT1MASK=0x00;
00035c 93e0 07eb 	STS  2027,R30
                 ; 0000 0234 }
00035e 9508      	RET
                 ;
                 ;// Virtual Ports initialization
                 ;void vports_init(void)
                 ; 0000 0238 {
                 _vports_init:
                 ; 0000 0239 // PORTA mapped to VPORT0
                 ; 0000 023A // PORTB mapped to VPORT1
                 ; 0000 023B PORTCFG.VPCTRLA=PORTCFG_VP1MAP_PORTB_gc | PORTCFG_VP0MAP_PORTA_gc;
00035f e1e0      	LDI  R30,LOW(16)
000360 93e0 00b2 	STS  178,R30
                 ; 0000 023C // PORTC mapped to VPORT2
                 ; 0000 023D // PORTD mapped to VPORT3
                 ; 0000 023E PORTCFG.VPCTRLB=PORTCFG_VP3MAP_PORTD_gc | PORTCFG_VP2MAP_PORTC_gc;
000362 e3e2      	LDI  R30,LOW(50)
000363 93e0 00b3 	STS  179,R30
                 ; 0000 023F }
000365 9508      	RET
                 ;// Disable a Timer/Counter type 0
                 ;void tc0_disable(TC0_t *ptc)
                 ; 0000 0242 {
                 _tc0_disable:
                 ; 0000 0243 // Timer/Counter off
                 ; 0000 0244 ptc->CTRLA=(ptc->CTRLA & (~TC0_CLKSEL_gm)) | TC_CLKSEL_OFF_gc;
                 ;	*ptc -> Y+0
000366 81a8      	LD   R26,Y
000367 81b9      	LDD  R27,Y+1
000368 91ec      	LD   R30,X
000369 7fe0      	ANDI R30,LOW(0xF0)
00036a 93ec      	ST   X,R30
                 ; 0000 0245 // Issue a reset command
                 ; 0000 0246 ptc->CTRLFSET=TC_CMD_RESET_gc;
00036b 9619      	ADIW R26,9
00036c e0ec      	LDI  R30,LOW(12)
00036d c0dd      	RJMP _0x20A000C
                 ; 0000 0247 }
                 ;// Timer/Counter TCC0 initialization
                 ;void tcc0_init(void)
                 ; 0000 024A {
                 _tcc0_init:
                 ; 0000 024B unsigned char s;
                 ; 0000 024C unsigned char n;
                 ; 0000 024D 
                 ; 0000 024E // Note: the correct PORTC direction for the Compare Channels outputs
                 ; 0000 024F // is configured in the ports_init function
                 ; 0000 0250 
                 ; 0000 0251 // Save interrupts enabled/disabled state
                 ; 0000 0252 s=SREG;
00036e 931a      	ST   -Y,R17
00036f 930a      	ST   -Y,R16
                 ;	s -> R17
                 ;	n -> R16
000370 b71f      	IN   R17,63
                 ; 0000 0253 // Disable interrupts
                 ; 0000 0254 #asm("cli")
000371 94f8      	cli
                 ; 0000 0255 
                 ; 0000 0256 // Disable and reset the timer/counter just to be sure
                 ; 0000 0257 tc0_disable(&TCC0);
000372 e0e0      	LDI  R30,LOW(2048)
000373 e0f8      	LDI  R31,HIGH(2048)
000374 93fa      	ST   -Y,R31
000375 93ea      	ST   -Y,R30
000376 dfef      	RCALL _tc0_disable
                 ; 0000 0258 // Clock source: Peripheral Clock/1
                 ; 0000 0259 TCC0.CTRLA=(TCC0.CTRLA & (~TC0_CLKSEL_gm)) | TC_CLKSEL_DIV1_gc;
000377 91e0 0800 	LDS  R30,2048
000379 7fe0      	ANDI R30,LOW(0xF0)
00037a 60e1      	ORI  R30,1
00037b 93e0 0800 	STS  2048,R30
                 ; 0000 025A // Mode: Normal Operation, Overflow Int./Event on TOP
                 ; 0000 025B // Compare/Capture on channel A: Off
                 ; 0000 025C // Compare/Capture on channel B: Off
                 ; 0000 025D // Compare/Capture on channel C: Off
                 ; 0000 025E // Compare/Capture on channel D: Off
                 ; 0000 025F TCC0.CTRLB=(TCC0.CTRLB & (~(TC0_CCAEN_bm | TC0_CCBEN_bm | TC0_CCCEN_bm | TC0_CCDEN_bm | TC0_WGMODE_gm))) |
                 ; 0000 0260 	TC_WGMODE_NORMAL_gc;
00037d 91e0 0801 	LDS  R30,2049
00037f 70e8      	ANDI R30,LOW(0x8)
000380 93e0 0801 	STS  2049,R30
                 ; 0000 0261 
                 ; 0000 0262 // Capture event source: None
                 ; 0000 0263 // Capture event action: None
                 ; 0000 0264 TCC0.CTRLD=(TCC0.CTRLD & (~(TC0_EVACT_gm | TC0_EVSEL_gm))) |
                 ; 0000 0265 	TC_EVACT_OFF_gc | TC_EVSEL_OFF_gc;
000382 91e0 0803 	LDS  R30,2051
000384 71e0      	ANDI R30,LOW(0x10)
000385 93e0 0803 	STS  2051,R30
                 ; 0000 0266 
                 ; 0000 0267 // Overflow interrupt: Low Level
                 ; 0000 0268 // Error interrupt: Disabled
                 ; 0000 0269 TCC0.INTCTRLA=(TCC0.INTCTRLA & (~(TC0_ERRINTLVL_gm | TC0_OVFINTLVL_gm))) |
                 ; 0000 026A 	TC_ERRINTLVL_OFF_gc | TC_OVFINTLVL_LO_gc;
000387 91e0 0806 	LDS  R30,2054
000389 7fe0      	ANDI R30,LOW(0xF0)
00038a 60e1      	ORI  R30,1
00038b 93e0 0806 	STS  2054,R30
                 ; 0000 026B 
                 ; 0000 026C // Compare/Capture channel A interrupt: Disabled
                 ; 0000 026D // Compare/Capture channel B interrupt: Disabled
                 ; 0000 026E // Compare/Capture channel C interrupt: Disabled
                 ; 0000 026F // Compare/Capture channel D interrupt: Disabled
                 ; 0000 0270 TCC0.INTCTRLB=(TCC0.INTCTRLB & (~(TC0_CCDINTLVL_gm | TC0_CCCINTLVL_gm | TC0_CCBINTLVL_gm | TC0_CCAINTLVL_gm))) |
                 ; 0000 0271 	TC_CCDINTLVL_OFF_gc | TC_CCCINTLVL_OFF_gc | TC_CCBINTLVL_OFF_gc | TC_CCAINTLVL_OFF_gc;
00038d 91e0 0807 	LDS  R30,2055
00038f 70e0      	ANDI R30,LOW(0x0)
000390 93e0 0807 	STS  2055,R30
                 ; 0000 0272 
                 ; 0000 0273 // High resolution extension: Off
                 ; 0000 0274 HIRESC.CTRL&= ~HIRES_HREN0_bm;
000392 91e0 0890 	LDS  R30,2192
000394 7fee      	ANDI R30,0xFE
000395 93e0 0890 	STS  2192,R30
                 ; 0000 0275 
                 ; 0000 0276 // Advanced Waveform Extension initialization
                 ; 0000 0277 // Optimize for speed
                 ; 0000 0278 #pragma optsize-
                 ; 0000 0279 // Disable locking the AWEX configuration registers just to be sure
                 ; 0000 027A n=MCU.AWEXLOCK & (~MCU_AWEXCLOCK_bm);
000397 91e0 0099 	LDS  R30,153
000399 7fee      	ANDI R30,0xFE
00039a 2f0e      	MOV  R16,R30
                 ; 0000 027B CCP=CCP_IOREG_gc;
00039b ede8      	LDI  R30,LOW(216)
00039c bfe4      	OUT  0x34,R30
                 ; 0000 027C MCU.AWEXLOCK=n;
00039d 9300 0099 	STS  153,R16
                 ; 0000 027D // Restore optimization for size if needed
                 ; 0000 027E #pragma optsize_default
                 ; 0000 027F 
                 ; 0000 0280 // Pattern generation: Off
                 ; 0000 0281 // Dead time insertion: Off
                 ; 0000 0282 AWEXC.CTRL&= ~(AWEX_PGM_bm | AWEX_CWCM_bm | AWEX_DTICCDEN_bm | AWEX_DTICCCEN_bm | AWEX_DTICCBEN_bm | AWEX_DTICCAEN_bm);
00039f 91e0 0880 	LDS  R30,2176
0003a1 7ce0      	ANDI R30,LOW(0xC0)
0003a2 93e0 0880 	STS  2176,R30
                 ; 0000 0283 
                 ; 0000 0284 // Fault protection initialization
                 ; 0000 0285 // Fault detection on OCD Break detection: On
                 ; 0000 0286 // Fault detection restart mode: Latched Mode
                 ; 0000 0287 // Fault detection action: None (Fault protection disabled)
                 ; 0000 0288 AWEXC.FDCTRL=(AWEXC.FDCTRL & (~(AWEX_FDDBD_bm | AWEX_FDMODE_bm | AWEX_FDACT_gm))) |
                 ; 0000 0289 	AWEX_FDACT_NONE_gc;
0003a4 91e0 0883 	LDS  R30,2179
0003a6 7ee8      	ANDI R30,LOW(0xE8)
0003a7 93e0 0883 	STS  2179,R30
                 ; 0000 028A // Fault detect events:
                 ; 0000 028B // Event channel 0: Off
                 ; 0000 028C // Event channel 1: Off
                 ; 0000 028D // Event channel 2: Off
                 ; 0000 028E // Event channel 3: Off
                 ; 0000 028F // Event channel 4: Off
                 ; 0000 0290 // Event channel 5: Off
                 ; 0000 0291 // Event channel 6: Off
                 ; 0000 0292 // Event channel 7: Off
                 ; 0000 0293 AWEXC.FDEVMASK=0b00000000;
0003a9 e0e0      	LDI  R30,LOW(0)
0003aa 93e0 0882 	STS  2178,R30
                 ; 0000 0294 // Make sure the fault detect flag is cleared
                 ; 0000 0295 AWEXC.STATUS|=AWEXC.STATUS & AWEX_FDF_bm;
0003ac e8a4      	LDI  R26,LOW(2180)
0003ad e0b8      	LDI  R27,HIGH(2180)
0003ae 2e0a      	MOV  R0,R26
0003af 91ac      	LD   R26,X
0003b0 91e0 0884 	LDS  R30,2180
0003b2 70e4      	ANDI R30,LOW(0x4)
0003b3 2bea      	OR   R30,R26
0003b4 2da0      	MOV  R26,R0
0003b5 93ec      	ST   X,R30
                 ; 0000 0296 
                 ; 0000 0297 // Clear the interrupt flags
                 ; 0000 0298 TCC0.INTFLAGS=TCC0.INTFLAGS;
0003b6 91e0 080c 	LDS  R30,2060
0003b8 93e0 080c 	STS  2060,R30
                 ; 0000 0299 // Set counter register
                 ; 0000 029A TCC0.CNT=0x0000;
0003ba e0e0      	LDI  R30,LOW(0)
0003bb e0f0      	LDI  R31,HIGH(0)
0003bc 93e0 0820 	STS  2080,R30
0003be 93f0 0821 	STS  2080+1,R31
                 ; 0000 029B // Set period register
                 ; 0000 029C TCC0.PER=0x4E1F;
0003c0 e1ef      	LDI  R30,LOW(19999)
0003c1 e4fe      	LDI  R31,HIGH(19999)
0003c2 93e0 0826 	STS  2086,R30
0003c4 93f0 0827 	STS  2086+1,R31
                 ; 0000 029D // Set channel A Compare/Capture register
                 ; 0000 029E TCC0.CCA=0x0000;
0003c6 e0e0      	LDI  R30,LOW(0)
0003c7 e0f0      	LDI  R31,HIGH(0)
0003c8 93e0 0828 	STS  2088,R30
0003ca 93f0 0829 	STS  2088+1,R31
                 ; 0000 029F // Set channel B Compare/Capture register
                 ; 0000 02A0 TCC0.CCB=0x0000;
0003cc 93e0 082a 	STS  2090,R30
0003ce 93f0 082b 	STS  2090+1,R31
                 ; 0000 02A1 // Set channel C Compare/Capture register
                 ; 0000 02A2 TCC0.CCC=0x0000;
0003d0 93e0 082c 	STS  2092,R30
0003d2 93f0 082d 	STS  2092+1,R31
                 ; 0000 02A3 // Set channel D Compare/Capture register
                 ; 0000 02A4 TCC0.CCD=0x0000;
0003d4 93e0 082e 	STS  2094,R30
0003d6 93f0 082f 	STS  2094+1,R31
                 ; 0000 02A5 
                 ; 0000 02A6 // Restore interrupts enabled/disabled state
                 ; 0000 02A7 SREG=s;
0003d8 bf1f      	OUT  0x3F,R17
                 ; 0000 02A8 }
0003d9 c37c      	RJMP _0x20A0007
                 ;
                 ;// Timer/counter TCC0 Overflow/Underflow interrupt service routine
                 ;interrupt [TCC0_OVF_vect] void tcc0_overflow_isr(void)
                 ; 0000 02AC {
                 _tcc0_overflow_isr:
0003da 93ea      	ST   -Y,R30
0003db 93fa      	ST   -Y,R31
0003dc b7ef      	IN   R30,SREG
0003dd 93ea      	ST   -Y,R30
                 ; 0000 02AD // write your code here
                 ; 0000 02AE     ten_ms++;
0003de 01f4      	MOVW R30,R8
0003df 9631      	ADIW R30,1
0003e0 014f      	MOVW R8,R30
                 ; 0000 02AF     if(ten_ms>128) //128
0003e1 e8e0      	LDI  R30,LOW(128)
0003e2 e0f0      	LDI  R31,HIGH(128)
0003e3 15e8      	CP   R30,R8
0003e4 05f9      	CPC  R31,R9
0003e5 f414      	BRGE _0x7
                 ; 0000 02B0     {
                 ; 0000 02B1         ten_ms=0;
0003e6 2488      	CLR  R8
0003e7 2499      	CLR  R9
                 ; 0000 02B2     }
                 ; 0000 02B3 }
                 _0x7:
0003e8 91e9      	LD   R30,Y+
0003e9 bfef      	OUT  SREG,R30
0003ea 91f9      	LD   R31,Y+
0003eb 91e9      	LD   R30,Y+
0003ec 9518      	RETI
                 ;
                 ;// RTC initialization
                 ;
                 ;unsigned long int RTC_sec=0;
                 ;bit RTC_flag=0;
                 ;
                 ;void rtcxm_init(void)
                 ; 0000 02BB {
                 _rtcxm_init:
                 ; 0000 02BC unsigned char s;
                 ; 0000 02BD 
                 ; 0000 02BE // RTC clock source: 1024 Hz from internal 32 kHz RC Oscillator
                 ; 0000 02BF // Internal 32 kHz RC oscillator initialization
                 ; 0000 02C0 // Enable the internal 32 kHz RC oscillator
                 ; 0000 02C1 OSC.CTRL|=OSC_RC32KEN_bm;
0003ed 931a      	ST   -Y,R17
                 ;	s -> R17
0003ee 91e0 0050 	LDS  R30,80
0003f0 60e4      	ORI  R30,4
0003f1 93e0 0050 	STS  80,R30
                 ; 0000 02C2 // Wait for the internal 32 kHz RC oscillator to stabilize
                 ; 0000 02C3 while ((OSC.STATUS & OSC_RC32KRDY_bm)==0);
                 _0x8:
0003f3 91e0 0051 	LDS  R30,81
0003f5 70e4      	ANDI R30,LOW(0x4)
0003f6 f3e1      	BREQ _0x8
                 ; 0000 02C4 
                 ; 0000 02C5 // Select the clock source and enable the RTC clock
                 ; 0000 02C6 CLK.RTCCTRL=(CLK.RTCCTRL & (~CLK_RTCSRC_gm)) | CLK_RTCSRC_RCOSC_gc | CLK_RTCEN_bm;
0003f7 91e0 0043 	LDS  R30,67
0003f9 7fe1      	ANDI R30,LOW(0xF1)
0003fa 60e5      	ORI  R30,LOW(0x5)
0003fb 93e0 0043 	STS  67,R30
                 ; 0000 02C7 // Make sure that the RTC is stopped before initializing it
                 ; 0000 02C8 RTC.CTRL=(RTC.CTRL & (~RTC_PRESCALER_gm)) | RTC_PRESCALER_OFF_gc;
0003fd 91e0 0400 	LDS  R30,1024
0003ff 7fe8      	ANDI R30,LOW(0xF8)
000400 93e0 0400 	STS  1024,R30
                 ; 0000 02C9 
                 ; 0000 02CA // Optimize for speed
                 ; 0000 02CB #pragma optsize-
                 ; 0000 02CC // Save interrupts enabled/disabled state
                 ; 0000 02CD s=SREG;
000402 b71f      	IN   R17,63
                 ; 0000 02CE // Disable interrupts
                 ; 0000 02CF #asm("cli")
000403 94f8      	cli
                 ; 0000 02D0 
                 ; 0000 02D1 // Wait until the RTC is not busy
                 ; 0000 02D2 while (RTC.STATUS & RTC_SYNCBUSY_bm);
                 _0xB:
000404 91e0 0401 	LDS  R30,1025
000406 70e1      	ANDI R30,LOW(0x1)
000407 f7e1      	BRNE _0xB
                 ; 0000 02D3 // Set the RTC period register
                 ; 0000 02D4 RTC.PER=0x0400;
000408 e0e0      	LDI  R30,LOW(1024)
000409 e0f4      	LDI  R31,HIGH(1024)
00040a 93e0 040a 	STS  1034,R30
00040c 93f0 040b 	STS  1034+1,R31
                 ; 0000 02D5 // Set the RTC count register
                 ; 0000 02D6 RTC.CNT=0x0000;
00040e e0e0      	LDI  R30,LOW(0)
00040f e0f0      	LDI  R31,HIGH(0)
000410 93e0 0408 	STS  1032,R30
000412 93f0 0409 	STS  1032+1,R31
                 ; 0000 02D7 // Set the RTC compare register
                 ; 0000 02D8 RTC.COMP=0x0000;
000414 93e0 040c 	STS  1036,R30
000416 93f0 040d 	STS  1036+1,R31
                 ; 0000 02D9 
                 ; 0000 02DA // Restore interrupts enabled/disabled state
                 ; 0000 02DB SREG=s;
000418 bf1f      	OUT  0x3F,R17
                 ; 0000 02DC // Restore optimization for size if needed
                 ; 0000 02DD #pragma optsize_default
                 ; 0000 02DE 
                 ; 0000 02DF // Set the clock prescaler: RTC Clock/1
                 ; 0000 02E0 // and start the RTC
                 ; 0000 02E1 RTC.CTRL=(RTC.CTRL & (~RTC_PRESCALER_gm)) | RTC_PRESCALER_DIV1_gc;
000419 91e0 0400 	LDS  R30,1024
00041b 7fe8      	ANDI R30,LOW(0xF8)
00041c 60e1      	ORI  R30,1
00041d 93e0 0400 	STS  1024,R30
                 ; 0000 02E2 
                 ; 0000 02E3 // RTC overflow interrupt: Low Level
                 ; 0000 02E4 // RTC compare interrupt: Disabled
                 ; 0000 02E5 RTC.INTCTRL=(RTC.INTCTRL & (~(RTC_OVFINTLVL_gm | RTC_COMPINTLVL_gm))) |
                 ; 0000 02E6 	RTC_OVFINTLVL_LO_gc | RTC_COMPINTLVL_OFF_gc;
00041f 91e0 0402 	LDS  R30,1026
000421 7fe0      	ANDI R30,LOW(0xF0)
000422 60e1      	ORI  R30,1
000423 93e0 0402 	STS  1026,R30
                 ; 0000 02E7 }
000425 9119      	LD   R17,Y+
000426 9508      	RET
                 ;
                 ;// RTC overflow interrupt service routine
                 ;interrupt [RTC_OVF_vect] void rtcxm_overflow_isr(void)
                 ; 0000 02EB {
                 _rtcxm_overflow_isr:
000427 936a      	ST   -Y,R22
000428 937a      	ST   -Y,R23
000429 93aa      	ST   -Y,R26
00042a 93ba      	ST   -Y,R27
00042b 93ea      	ST   -Y,R30
00042c 93fa      	ST   -Y,R31
00042d b7ef      	IN   R30,SREG
00042e 93ea      	ST   -Y,R30
                 ; 0000 02EC // write your code here
                 ; 0000 02ED     RTC_flag=1;
00042f 9a01      	SBI  0x0,1
                 ; 0000 02EE     RTC_sec++;
000430 e8a1      	LDI  R26,LOW(_RTC_sec)
000431 e2b6      	LDI  R27,HIGH(_RTC_sec)
000432 940e 1386 	CALL __GETD1P_INC
                +
000434 5fef     +SUBI R30 , LOW ( - 1 )
000435 4fff     +SBCI R31 , HIGH ( - 1 )
000436 4f6f     +SBCI R22 , BYTE3 ( - 1 )
000437 4f7f     +SBCI R23 , BYTE4 ( - 1 )
                 	__SUBD1N -1
000438 940e 138b 	CALL __PUTDP1_DEC
                 ; 0000 02EF }
00043a 91e9      	LD   R30,Y+
00043b bfef      	OUT  SREG,R30
00043c 91f9      	LD   R31,Y+
00043d 91e9      	LD   R30,Y+
00043e 91b9      	LD   R27,Y+
00043f 91a9      	LD   R26,Y+
000440 9179      	LD   R23,Y+
000441 9169      	LD   R22,Y+
000442 9518      	RETI
                 ;
                 ;// Disable an USART
                 ;void usart_disable(USART_t *pu)
                 ; 0000 02F3 {
                 _usart_disable:
                 ; 0000 02F4 // Rx and Tx are off
                 ; 0000 02F5 pu->CTRLB=0;
                 ;	*pu -> Y+0
000443 81a8      	LD   R26,Y
000444 81b9      	LDD  R27,Y+1
000445 9614      	ADIW R26,4
000446 e0e0      	LDI  R30,LOW(0)
000447 93ec      	ST   X,R30
                 ; 0000 02F6 // Ensure that all interrupts generated by the USART are off
                 ; 0000 02F7 pu->CTRLA=0;
000448 81a8      	LD   R26,Y
000449 81b9      	LDD  R27,Y+1
00044a 9613      	ADIW R26,3
                 _0x20A000C:
00044b 93ec      	ST   X,R30
                 ; 0000 02F8 }
00044c 9622      	ADIW R28,2
00044d 9508      	RET
                 ;
                 ;// USARTD0 initialization
                 ;void usartd0_init(void)
                 ; 0000 02FC {
                 _usartd0_init:
                 ; 0000 02FD // Note: the correct PORTD direction for the RxD, TxD and XCK signals
                 ; 0000 02FE // is configured in the ports_init function
                 ; 0000 02FF 
                 ; 0000 0300 // Transmitter is enabled
                 ; 0000 0301 // Set TxD=1
                 ; 0000 0302 PORTD.OUTSET=0x08;
00044e e0e8      	LDI  R30,LOW(8)
00044f 93e0 0665 	STS  1637,R30
                 ; 0000 0303 
                 ; 0000 0304 // Communication mode: Asynchronous USART
                 ; 0000 0305 // Data bits: 8
                 ; 0000 0306 // Stop bits: 1
                 ; 0000 0307 // Parity: Disabled
                 ; 0000 0308 USARTD0.CTRLC=USART_CMODE_ASYNCHRONOUS_gc | USART_PMODE_DISABLED_gc | USART_CHSIZE_8BIT_gc;
000451 e0e3      	LDI  R30,LOW(3)
000452 93e0 09a5 	STS  2469,R30
                 ; 0000 0309 
                 ; 0000 030A // Receive complete interrupt: Low Level
                 ; 0000 030B // Transmit complete interrupt: Disabled
                 ; 0000 030C // Data register empty interrupt: Disabled
                 ; 0000 030D USARTD0.CTRLA=(USARTD0.CTRLA & (~(USART_RXCINTLVL_gm | USART_TXCINTLVL_gm | USART_DREINTLVL_gm))) |
                 ; 0000 030E 	USART_RXCINTLVL_LO_gc | USART_TXCINTLVL_OFF_gc | USART_DREINTLVL_OFF_gc;
000454 91e0 09a3 	LDS  R30,2467
000456 7ce0      	ANDI R30,LOW(0xC0)
000457 61e0      	ORI  R30,0x10
000458 93e0 09a3 	STS  2467,R30
                 ; 0000 030F 
                 ; 0000 0310 // Required Baud rate: 115200
                 ; 0000 0311 // Real Baud Rate: 115107.9 (x1 Mode), Error: 0.1 %
                 ; 0000 0312 USARTD0.BAUDCTRLA=0x0B;
00045a e0eb      	LDI  R30,LOW(11)
00045b 93e0 09a6 	STS  2470,R30
                 ; 0000 0313 USARTD0.BAUDCTRLB=((0x09 << USART_BSCALE_bp) & USART_BSCALE_gm) | 0x00;
00045d e9e0      	LDI  R30,LOW(144)
00045e 93e0 09a7 	STS  2471,R30
                 ; 0000 0314 
                 ; 0000 0315 // Receiver: On
                 ; 0000 0316 // Transmitter: On
                 ; 0000 0317 // Double transmission speed mode: Off
                 ; 0000 0318 // Multi-processor communication mode: Off
                 ; 0000 0319 USARTD0.CTRLB=(USARTD0.CTRLB & (~(USART_RXEN_bm | USART_TXEN_bm | USART_CLK2X_bm | USART_MPCM_bm | USART_TXB8_bm))) |
                 ; 0000 031A 	USART_RXEN_bm | USART_TXEN_bm;
000460 91e0 09a4 	LDS  R30,2468
000462 7ee0      	ANDI R30,LOW(0xE0)
000463 61e8      	ORI  R30,LOW(0x18)
000464 93e0 09a4 	STS  2468,R30
                 ; 0000 031B }
000466 9508      	RET
                 ;
                 ;// USARTD0 Receiver buffer
                 ;#define RX_BUFFER_SIZE_USARTD0 8
                 ;char rx_buffer_usartd0[RX_BUFFER_SIZE_USARTD0];
                 ;
                 ;#if RX_BUFFER_SIZE_USARTD0 <= 256
                 ;unsigned char rx_wr_index_usartd0=0,rx_rd_index_usartd0=0,rx_counter_usartd0=0;
                 ;#else
                 ;unsigned int rx_wr_index_usartd0=0,rx_rd_index_usartd0=0,rx_counter_usartd0=0;
                 ;#endif
                 ;
                 ;// This flag is set on USARTD0 Receiver buffer overflow
                 ;bit rx_buffer_overflow_usartd0=0, command_flag=0;
                 ;unsigned char command[31];  // 명령어 버퍼
                 ;unsigned char command_size=0;         // 버퍼주소
                 ;
                 ;// USARTD0 Receiver interrupt service routine
                 ;interrupt [USARTD0_RXC_vect] void usartd0_rx_isr(void)
                 ; 0000 032E {
                 _usartd0_rx_isr:
000467 93aa      	ST   -Y,R26
000468 93ea      	ST   -Y,R30
000469 93fa      	ST   -Y,R31
00046a b7ef      	IN   R30,SREG
00046b 93ea      	ST   -Y,R30
                 ; 0000 032F unsigned char status;
                 ; 0000 0330 char data;
                 ; 0000 0331 
                 ; 0000 0332 status=USARTD0.STATUS;
00046c 931a      	ST   -Y,R17
00046d 930a      	ST   -Y,R16
                 ;	status -> R17
                 ;	data -> R16
00046e 9110 09a1 	LDS  R17,2465
                 ; 0000 0333 data=USARTD0.DATA;
000470 9100 09a0 	LDS  R16,2464
                 ; 0000 0334 if ((status & (USART_FERR_bm | USART_PERR_bm | USART_BUFOVF_bm)) == 0)
000472 2fe1      	MOV  R30,R17
000473 71ec      	ANDI R30,LOW(0x1C)
000474 f4e1      	BRNE _0x10
                 ; 0000 0335    {
                 ; 0000 0336    rx_buffer_usartd0[rx_wr_index_usartd0++]=data;
000475 91e0 268d 	LDS  R30,_rx_wr_index_usartd0
000477 5fef      	SUBI R30,-LOW(1)
000478 93e0 268d 	STS  _rx_wr_index_usartd0,R30
00047a 50e1      	SUBI R30,LOW(1)
00047b e0f0      	LDI  R31,0
00047c 57eb      	SUBI R30,LOW(-_rx_buffer_usartd0)
00047d 4df9      	SBCI R31,HIGH(-_rx_buffer_usartd0)
00047e 8300      	ST   Z,R16
                 ; 0000 0337 #if RX_BUFFER_SIZE_USARTD0 == 256
                 ; 0000 0338    // special case for receiver buffer size=256
                 ; 0000 0339    if (++rx_counter_usartd0 == 0)
                 ; 0000 033A       {
                 ; 0000 033B #else
                 ; 0000 033C    if (rx_wr_index_usartd0 == RX_BUFFER_SIZE_USARTD0) rx_wr_index_usartd0=0;
00047f 91a0 268d 	LDS  R26,_rx_wr_index_usartd0
000481 30a8      	CPI  R26,LOW(0x8)
000482 f419      	BRNE _0x11
000483 e0e0      	LDI  R30,LOW(0)
000484 93e0 268d 	STS  _rx_wr_index_usartd0,R30
                 ; 0000 033D    if (++rx_counter_usartd0 == RX_BUFFER_SIZE_USARTD0)
                 _0x11:
000486 91a0 268f 	LDS  R26,_rx_counter_usartd0
000488 5faf      	SUBI R26,-LOW(1)
000489 93a0 268f 	STS  _rx_counter_usartd0,R26
00048b 30a8      	CPI  R26,LOW(0x8)
00048c f421      	BRNE _0x12
                 ; 0000 033E       {
                 ; 0000 033F       rx_counter_usartd0=0;
00048d e0e0      	LDI  R30,LOW(0)
00048e 93e0 268f 	STS  _rx_counter_usartd0,R30
                 ; 0000 0340 #endif
                 ; 0000 0341       rx_buffer_overflow_usartd0=1;
000490 9a02      	SBI  0x0,2
                 ; 0000 0342       }
                 ; 0000 0343    }
                 _0x12:
                 ; 0000 0344     command[command_size]=data;
                 _0x10:
000491 940e 0ef0 	CALL SUBOPT_0x0
000493 8300      	ST   Z,R16
                 ; 0000 0345     if(data=='>')
000494 330e      	CPI  R16,62
000495 f421      	BRNE _0x15
                 ; 0000 0346     {
                 ; 0000 0347         command_flag=1;
000496 9a03      	SBI  0x0,3
                 ; 0000 0348         command_size=0;
000497 e0e0      	LDI  R30,LOW(0)
000498 93e0 26af 	STS  _command_size,R30
                 ; 0000 0349     }
                 ; 0000 034A     if(command_size>=30) command_size=0;
                 _0x15:
00049a 91a0 26af 	LDS  R26,_command_size
00049c 31ae      	CPI  R26,LOW(0x1E)
00049d f010      	BRLO _0x18
00049e e0e0      	LDI  R30,LOW(0)
00049f c003      	RJMP _0xCA
                 ; 0000 034B     else command_size++;
                 _0x18:
0004a0 91e0 26af 	LDS  R30,_command_size
0004a2 5fef      	SUBI R30,-LOW(1)
                 _0xCA:
0004a3 93e0 26af 	STS  _command_size,R30
                 ; 0000 034C }
0004a5 9109      	LD   R16,Y+
0004a6 9119      	LD   R17,Y+
0004a7 91e9      	LD   R30,Y+
0004a8 bfef      	OUT  SREG,R30
0004a9 91f9      	LD   R31,Y+
0004aa 91e9      	LD   R30,Y+
0004ab 91a9      	LD   R26,Y+
0004ac 9518      	RETI
                 ;
                 ;// Receive a character from USARTD0
                 ;// USARTD0 is used as the default input device by the 'getchar' function
                 ;#define _ALTERNATE_GETCHAR_
                 ;
                 ;#pragma used+
                 ;char getchar(void)
                 ; 0000 0354 {
                 ; 0000 0355 char data;
                 ; 0000 0356 
                 ; 0000 0357 while (rx_counter_usartd0==0);
                 ;	data -> R17
                 ; 0000 0358 data=rx_buffer_usartd0[rx_rd_index_usartd0++];
                 ; 0000 0359 #if RX_BUFFER_SIZE_USARTD0 != 256
                 ; 0000 035A if (rx_rd_index_usartd0 == RX_BUFFER_SIZE_USARTD0) rx_rd_index_usartd0=0;
                 ; 0000 035B #endif
                 ; 0000 035C #asm("cli")
                 ; 0000 035D --rx_counter_usartd0;
                 ; 0000 035E #asm("sei")
                 ; 0000 035F return data;
                 ; 0000 0360 }
                 ;#pragma used-
                 ;
                 ;// Write a character to the USARTD0 Transmitter
                 ;// USARTD0 is used as the default output device by the 'putchar' function
                 ;#define _ALTERNATE_PUTCHAR_
                 ;
                 ;#pragma used+
                 ;void putchar(char c)
                 ; 0000 0369 {
                 _putchar:
                 ; 0000 036A while ((USARTD0.STATUS & USART_DREIF_bm) == 0);
                 ;	c -> Y+0
                 _0x1E:
0004ad 91e0 09a1 	LDS  R30,2465
0004af 72e0      	ANDI R30,LOW(0x20)
0004b0 f3e1      	BREQ _0x1E
                 ; 0000 036B USARTD0.DATA=c;
0004b1 81e8      	LD   R30,Y
0004b2 93e0 09a0 	STS  2464,R30
                 ; 0000 036C }
0004b4 c164      	RJMP _0x20A000A
                 ;#pragma used-
                 ;
                 ;// SPIC initialization
                 ;void spic_init(void)
                 ; 0000 0371 {
                 _spic_init:
                 ; 0000 0372 // SPIC is enabled
                 ; 0000 0373 // SPI mode: 0
                 ; 0000 0374 // Operating as: Master
                 ; 0000 0375 // Data order: MSB First
                 ; 0000 0376 // SCK clock prescaler: 4
                 ; 0000 0377 // SCK clock doubled: On
                 ; 0000 0378 // SCK clock frequency: 1000.000 kHz
                 ; 0000 0379 SPIC.CTRL=SPI_ENABLE_bm | SPI_MODE_0_gc | SPI_MASTER_bm |
                 ; 0000 037A 	SPI_PRESCALER_DIV4_gc | SPI_CLK2X_bm;
0004b5 ede0      	LDI  R30,LOW(208)
0004b6 93e0 08c0 	STS  2240,R30
                 ; 0000 037B 
                 ; 0000 037C // SPIC interrupt: Disabled
                 ; 0000 037D SPIC.INTCTRL=(SPIC.INTCTRL & (~SPI_INTLVL_gm)) | SPI_INTLVL_OFF_gc;
0004b8 91e0 08c1 	LDS  R30,2241
0004ba 7fec      	ANDI R30,LOW(0xFC)
0004bb 93e0 08c1 	STS  2241,R30
                 ; 0000 037E 
                 ; 0000 037F // Note: the MOSI (PORTC Bit 5), SCK (PORTC Bit 7) and
                 ; 0000 0380 // /SS (PORTC Bit 4) signals are configured as outputs in the ports_init function
                 ; 0000 0381 }
0004bd 9508      	RET
                 ;
                 ;// Macro used to drive the SPIC /SS signal low in order to select the slave
                 ;#define SET_SPIC_SS_LOW {PORTC.OUTCLR=SPI_SS_bm;}
                 ;// Macro used to drive the SPIC /SS signal high in order to deselect the slave
                 ;#define SET_SPIC_SS_HIGH {PORTC.OUTSET=SPI_SS_bm;}
                 ;
                 ;// SPIC transmit/receive function in Master mode
                 ;// c - data to be transmitted
                 ;// Returns the received data
                 ;#pragma used+
                 ;unsigned char SPI1_Write(unsigned char c)
                 ; 0000 038D {
                 _SPI1_Write:
                 ; 0000 038E // Transmit data in Master mode
                 ; 0000 038F SPIC.DATA=c;
                 ;	c -> Y+0
0004be 81e8      	LD   R30,Y
0004bf 93e0 08c3 	STS  2243,R30
                 ; 0000 0390 // Wait for the data to be transmitted/received
                 ; 0000 0391 while ((SPIC.STATUS & SPI_IF_bm)==0);
                 _0x21:
0004c1 91e0 08c2 	LDS  R30,2242
0004c3 78e0      	ANDI R30,LOW(0x80)
0004c4 f3e1      	BREQ _0x21
                 ; 0000 0392 // Return the received data
                 ; 0000 0393 return SPIC.DATA;
0004c5 91e0 08c3 	LDS  R30,2243
0004c7 c151      	RJMP _0x20A000A
                 ; 0000 0394 }
                 ;#pragma used-
                 ;
                 ;// SPID initialization
                 ;void spid_init(void)
                 ; 0000 0399 {
                 _spid_init:
                 ; 0000 039A // SPID is enabled
                 ; 0000 039B // SPI mode: 0
                 ; 0000 039C // Operating as: Master
                 ; 0000 039D // Data order: MSB First
                 ; 0000 039E // SCK clock prescaler: 4
                 ; 0000 039F // SCK clock doubled: On
                 ; 0000 03A0 // SCK clock frequency: 1000.000 kHz
                 ; 0000 03A1 SPID.CTRL=SPI_ENABLE_bm | SPI_MODE_0_gc | SPI_MASTER_bm |
                 ; 0000 03A2 	SPI_PRESCALER_DIV4_gc | SPI_CLK2X_bm;
0004c8 ede0      	LDI  R30,LOW(208)
0004c9 93e0 09c0 	STS  2496,R30
                 ; 0000 03A3 
                 ; 0000 03A4 // SPID interrupt: Disabled
                 ; 0000 03A5 SPID.INTCTRL=(SPID.INTCTRL & (~SPI_INTLVL_gm)) | SPI_INTLVL_OFF_gc;
0004cb 91e0 09c1 	LDS  R30,2497
0004cd 7fec      	ANDI R30,LOW(0xFC)
0004ce 93e0 09c1 	STS  2497,R30
                 ; 0000 03A6 
                 ; 0000 03A7 // Note: the MOSI (PORTD Bit 5), SCK (PORTD Bit 7) and
                 ; 0000 03A8 // /SS (PORTD Bit 4) signals are configured as outputs in the ports_init function
                 ; 0000 03A9 }
0004d0 9508      	RET
                 ;
                 ;// Macro used to drive the SPID /SS signal low in order to select the slave
                 ;#define SET_SPID_SS_LOW {PORTD.OUTCLR=SPI_SS_bm;}
                 ;// Macro used to drive the SPID /SS signal high in order to deselect the slave
                 ;#define SET_SPID_SS_HIGH {PORTD.OUTSET=SPI_SS_bm;}
                 ;
                 ;// SPID transmit/receive function in Master mode
                 ;// c - data to be transmitted
                 ;// Returns the received data
                 ;#pragma used+
                 ;unsigned char spid_master_tx_rx(unsigned char c)
                 ; 0000 03B5 {
                 _spid_master_tx_rx:
                 ; 0000 03B6 // Transmit data in Master mode
                 ; 0000 03B7 SPID.DATA=c;
                 ;	c -> Y+0
0004d1 81e8      	LD   R30,Y
0004d2 93e0 09c3 	STS  2499,R30
                 ; 0000 03B8 // Wait for the data to be transmitted/received
                 ; 0000 03B9 while ((SPID.STATUS & SPI_IF_bm)==0);
                 _0x24:
0004d4 91e0 09c2 	LDS  R30,2498
0004d6 78e0      	ANDI R30,LOW(0x80)
0004d7 f3e1      	BREQ _0x24
                 ; 0000 03BA // Return the received data
                 ; 0000 03BB return SPID.DATA;
0004d8 91e0 09c3 	LDS  R30,2499
0004da c13e      	RJMP _0x20A000A
                 ; 0000 03BC }
                 ;#pragma used-
                 ;////////////////////////////////////////////////////////////////////OSD Driver//////////////////////////////////////////////////////////////////////////////
                 ;void MAX7456_SPI_WRITE(unsigned short ADDRESS, unsigned short DATA){
                 ; 0000 03BF void MAX7456_SPI_WRITE(unsigned short ADDRESS, unsigned short DATA){
                 _MAX7456_SPI_WRITE:
                 ; 0000 03C0   SET_SPIC_SS_LOW            //OSD_CS = 0;                // Selecting the OSD click
                 ;	ADDRESS -> Y+2
                 ;	DATA -> Y+0
0004db 940e 0ef6 	CALL SUBOPT_0x1
                 ; 0000 03C1   delay_us(1);               //
                 ; 0000 03C2   SPI1_Write(ADDRESS);       // Send the ADDRESS of registe in which you wish to wite DATA
                 ; 0000 03C3   SPI1_Write(DATA);          // Send the DATA which you wish to wite
0004dd 81e8      	LD   R30,Y
0004de 93ea      	ST   -Y,R30
0004df dfde      	RCALL _SPI1_Write
                 ; 0000 03C4   delay_us(1);               //
0004e0 940e 0f00 	CALL SUBOPT_0x2
                 ; 0000 03C5   SET_SPIC_SS_HIGH           //OSD_CS = 1;                // Deselecting the OSD click
                 ; 0000 03C6   delay_us(10);
                 ; 0000 03C7 }
0004e2 c2b4      	RJMP _0x20A0006
                 ;unsigned short MAX7456_SPI_READ(unsigned short ADDRESS){
                 ; 0000 03C8 unsigned short MAX7456_SPI_READ(unsigned short ADDRESS){
                 _MAX7456_SPI_READ:
                 ; 0000 03C9 unsigned short temp;
                 ; 0000 03CA   SET_SPIC_SS_LOW            //OSD_CS = 0;                // Selecting the OSD click
0004e3 931a      	ST   -Y,R17
0004e4 930a      	ST   -Y,R16
                 ;	ADDRESS -> Y+2
                 ;	temp -> R16,R17
0004e5 940e 0ef6 	CALL SUBOPT_0x1
                 ; 0000 03CB   delay_us(1);               //
                 ; 0000 03CC   SPI1_Write(ADDRESS);       // Send the ADDRESS of registe from which you wish to read DATA
                 ; 0000 03CD   delay_us(1);               //
                +
0004e7 e081     +LDI R24 , LOW ( 1 )
                +__DELAY_USB_LOOP :
0004e8 958a     +DEC R24
0004e9 f7f1     +BRNE __DELAY_USB_LOOP
                 	__DELAY_USB 1
                 ; 0000 03CE   temp  = SPI1_Write(0);     //SPI1_Read(0);      // Read the register DATA
0004ea e0e0      	LDI  R30,LOW(0)
0004eb 93ea      	ST   -Y,R30
0004ec dfd1      	RCALL _SPI1_Write
0004ed 2f0e      	MOV  R16,R30
0004ee 2711      	CLR  R17
                 ; 0000 03CF   SET_SPIC_SS_HIGH           //OSD_CS = 1;                // Deselecting the OSD click
0004ef e1e0      	LDI  R30,LOW(16)
0004f0 93e0 0645 	STS  1605,R30
                 ; 0000 03D0   delay_us(20);
                +
0004f2 e08d     +LDI R24 , LOW ( 13 )
                +__DELAY_USB_LOOP :
0004f3 958a     +DEC R24
0004f4 f7f1     +BRNE __DELAY_USB_LOOP
                 	__DELAY_USB 13
                 ; 0000 03D1 }
0004f5 8119      	LDD  R17,Y+1
0004f6 8108      	LDD  R16,Y+0
0004f7 c29f      	RJMP _0x20A0006
                 ;
                 ;void MAX7456_init(){
                 ; 0000 03D3 void MAX7456_init(){
                 _MAX7456_init:
                 ; 0000 03D4 unsigned short temp;
                 ; 0000 03D5   MAX7456_SPI_WRITE(0x00, 0x0C);   // Setup Video Mode 0 register
0004f8 931a      	ST   -Y,R17
0004f9 930a      	ST   -Y,R16
                 ;	temp -> R16,R17
0004fa 940e 0f0a 	CALL SUBOPT_0x3
                 ; 0000 03D6   temp  = MAX7456_SPI_READ(0xEC);  // Read OSD Black Level register
0004fc eeec      	LDI  R30,LOW(236)
0004fd e0f0      	LDI  R31,HIGH(236)
0004fe 93fa      	ST   -Y,R31
0004ff 93ea      	ST   -Y,R30
000500 dfe2      	RCALL _MAX7456_SPI_READ
000501 018f      	MOVW R16,R30
                 ; 0000 03D7   temp&= 0xEF;
                +
000502 7e0f     +ANDI R16 , LOW ( 239 )
000503 7010     +ANDI R17 , HIGH ( 239 )
                 	__ANDWRN 16,17,239
                 ; 0000 03D8   MAX7456_SPI_WRITE(0x6C, temp);  // Setup OSD Black Level register
000504 e6ec      	LDI  R30,LOW(108)
000505 e0f0      	LDI  R31,HIGH(108)
000506 93fa      	ST   -Y,R31
000507 93ea      	ST   -Y,R30
000508 931a      	ST   -Y,R17
000509 930a      	ST   -Y,R16
00050a dfd0      	RCALL _MAX7456_SPI_WRITE
                 ; 0000 03D9   MAX7456_SPI_WRITE(0x04, 0x04);  // Setup Display Memory Mode register
00050b 940e 0f14 	CALL SUBOPT_0x4
00050d 940e 0f14 	CALL SUBOPT_0x4
00050f dfcb      	RCALL _MAX7456_SPI_WRITE
                 ; 0000 03DA   MAX7456_SPI_WRITE(0x02, 0x26);  // Horizotal offset for ~1/2 of character
000510 e0e2      	LDI  R30,LOW(2)
000511 e0f0      	LDI  R31,HIGH(2)
000512 93fa      	ST   -Y,R31
000513 93ea      	ST   -Y,R30
000514 e2e6      	LDI  R30,LOW(38)
000515 e0f0      	LDI  R31,HIGH(38)
000516 940e 0f19 	CALL SUBOPT_0x5
                 ; 0000 03DB }
000518 c23d      	RJMP _0x20A0007
                 ;
                 ;void MAX7456_Write(unsigned short x, unsigned short y, unsigned short symbol)
                 ; 0000 03DE   {
                 _MAX7456_Write:
                 ; 0000 03DF   SET_SPIC_SS_LOW                 //OSD_CS = 0;                     // Selecting the OSD click
                 ;	x -> Y+4
                 ;	y -> Y+2
                 ;	symbol -> Y+0
000519 e1e0      	LDI  R30,LOW(16)
00051a 93e0 0646 	STS  1606,R30
                 ; 0000 03E0   delay_us(1);                    //
                +
00051c e081     +LDI R24 , LOW ( 1 )
                +__DELAY_USB_LOOP :
00051d 958a     +DEC R24
00051e f7f1     +BRNE __DELAY_USB_LOOP
                 	__DELAY_USB 1
                 ; 0000 03E1   SPI1_Write(0x05);               // Address to Display Memory Address High
00051f e0e5      	LDI  R30,LOW(5)
000520 93ea      	ST   -Y,R30
000521 df9c      	RCALL _SPI1_Write
                 ; 0000 03E2   if( ( x * 30 + y ) <= 255 )
000522 81ac      	LDD  R26,Y+4
000523 81bd      	LDD  R27,Y+4+1
000524 e1ee      	LDI  R30,LOW(30)
000525 940e 12e9 	CALL __MULB1W2U
000527 940e 0f1d 	CALL SUBOPT_0x6
000529 30a0      	CPI  R26,LOW(0x100)
00052a e0e1      	LDI  R30,HIGH(0x100)
00052b 07be      	CPC  R27,R30
00052c f410      	BRSH _0x27
                 ; 0000 03E3     SPI1_Write(0);                // For first 255 matrix positions Write 0
00052d e0e0      	LDI  R30,LOW(0)
00052e c001      	RJMP _0xCB
                 ; 0000 03E4   else
                 _0x27:
                 ; 0000 03E5     SPI1_Write(1);                // For the rest of matrix positions Write 1
00052f e0e1      	LDI  R30,LOW(1)
                 _0xCB:
000530 93ea      	ST   -Y,R30
000531 df8c      	RCALL _SPI1_Write
                 ; 0000 03E6   delay_us(1);
000532 940e 0f00 	CALL SUBOPT_0x2
                 ; 0000 03E7   SET_SPIC_SS_HIGH                //OSD_CS = 1;                     // Deselecting the OSD click
                 ; 0000 03E8   delay_us(10);
                 ; 0000 03E9 
                 ; 0000 03EA   MAX7456_SPI_WRITE(0x06, x * 30 + y );  // Set position in display matrix(16x30)
000534 e0e6      	LDI  R30,LOW(6)
000535 e0f0      	LDI  R31,HIGH(6)
000536 93fa      	ST   -Y,R31
000537 93ea      	ST   -Y,R30
000538 81ae      	LDD  R26,Y+6
000539 81bf      	LDD  R27,Y+6+1
00053a e1ee      	LDI  R30,LOW(30)
00053b 940e 12e9 	CALL __MULB1W2U
00053d 81ac      	LDD  R26,Y+4
00053e 81bd      	LDD  R27,Y+4+1
00053f 0fea      	ADD  R30,R26
000540 1ffb      	ADC  R31,R27
000541 940e 0f19 	CALL SUBOPT_0x5
                 ; 0000 03EB   MAX7456_SPI_WRITE(0x07, symbol);       // Set character on selected position
000543 e0e7      	LDI  R30,LOW(7)
000544 e0f0      	LDI  R31,HIGH(7)
000545 93fa      	ST   -Y,R31
000546 93ea      	ST   -Y,R30
000547 81ea      	LDD  R30,Y+2
000548 81fb      	LDD  R31,Y+2+1
000549 940e 0f19 	CALL SUBOPT_0x5
                 ; 0000 03EC }
00054b 9626      	ADIW R28,6
00054c 9508      	RET
                 ;////////////////////////////////////////////////function////////////////////////////////////////////////////////////////////////////////////////////////////
                 ;void com_reset(void)                        // 명령어버퍼 초기화
                 ; 0000 03EF {
                 _com_reset:
                 ; 0000 03F0    for(command_size=30 ; command_size>0; command_size--) command[command_size]=NULL;
00054d e1ee      	LDI  R30,LOW(30)
00054e 93e0 26af 	STS  _command_size,R30
                 _0x2A:
000550 91a0 26af 	LDS  R26,_command_size
000552 30a1      	CPI  R26,LOW(0x1)
000553 f050      	BRLO _0x2B
000554 940e 0ef0 	CALL SUBOPT_0x0
000556 e0a0      	LDI  R26,LOW(0)
000557 83a0      	STD  Z+0,R26
000558 91e0 26af 	LDS  R30,_command_size
00055a 50e1      	SUBI R30,LOW(1)
00055b 93e0 26af 	STS  _command_size,R30
00055d cff2      	RJMP _0x2A
                 _0x2B:
                 ; 0000 03F1 command_flag=0;
00055e 9803      	CBI  0x0,3
                 ; 0000 03F2 }
00055f 9508      	RET
                 ;void check(void)                             // 동작체크
                 ; 0000 03F4 {
                 _check:
                 ; 0000 03F5     static int a=0;
                 ; 0000 03F6     MAX7456_Write(row_pointer,  col_pointer, OSDchr['C']);
000560 925a      	ST   -Y,R5
000561 924a      	ST   -Y,R4
000562 923a      	ST   -Y,R3
000563 922a      	ST   -Y,R2
                +
000564 91e0 25a2+LDS R30 , _OSDchr + ( 67 )
                 	__GETB1MN _OSDchr,67
000566 940e 0f22 	CALL SUBOPT_0x7
                 ; 0000 03F7     MAX7456_Write(row_pointer+2,  col_pointer+2, OSDchr['K']);
000568 9632      	ADIW R30,2
000569 93fa      	ST   -Y,R31
00056a 93ea      	ST   -Y,R30
00056b 01f1      	MOVW R30,R2
00056c 9632      	ADIW R30,2
00056d 93fa      	ST   -Y,R31
00056e 93ea      	ST   -Y,R30
                +
00056f 91e0 25aa+LDS R30 , _OSDchr + ( 75 )
                 	__GETB1MN _OSDchr,75
000571 940e 0f22 	CALL SUBOPT_0x7
                 ; 0000 03F8     MAX7456_Write(row_pointer+1,  col_pointer+1, OSDchr['0'+a]);
000573 9631      	ADIW R30,1
000574 93fa      	ST   -Y,R31
000575 93ea      	ST   -Y,R30
000576 01f1      	MOVW R30,R2
000577 9631      	ADIW R30,1
000578 940e 0f29 	CALL SUBOPT_0x8
00057a 940e 0f22 	CALL SUBOPT_0x7
                 ; 0000 03F9     MAX7456_Write(row_pointer+3,  col_pointer+3, OSDchr['0'+a]);
00057c 9633      	ADIW R30,3
00057d 93fa      	ST   -Y,R31
00057e 93ea      	ST   -Y,R30
00057f 01f1      	MOVW R30,R2
000580 9633      	ADIW R30,3
000581 940e 0f29 	CALL SUBOPT_0x8
000583 940e 0f33 	CALL SUBOPT_0x9
                 ; 0000 03FA     if(a>=9)
000585 91a0 26b0 	LDS  R26,_a_S0000018000
000587 91b0 26b1 	LDS  R27,_a_S0000018000+1
000589 9719      	SBIW R26,9
00058a f034      	BRLT _0x2E
                 ; 0000 03FB     a=0;
00058b e0e0      	LDI  R30,LOW(0)
00058c 93e0 26b0 	STS  _a_S0000018000,R30
00058e 93e0 26b1 	STS  _a_S0000018000+1,R30
                 ; 0000 03FC     else
000590 c009      	RJMP _0x2F
                 _0x2E:
                 ; 0000 03FD     a++;
000591 91e0 26b0 	LDS  R30,_a_S0000018000
000593 91f0 26b1 	LDS  R31,_a_S0000018000+1
000595 9631      	ADIW R30,1
000596 93e0 26b0 	STS  _a_S0000018000,R30
000598 93f0 26b1 	STS  _a_S0000018000+1,R31
                 ; 0000 03FE     puts("CHECK!\r");
                 _0x2F:
                +
00059a e0e0     +LDI R30 , LOW ( _0x30 + ( 0 ) )
00059b e2f4     +LDI R31 , HIGH ( _0x30 + ( 0 ) )
                 	__POINTW1MN _0x30,0
00059c c016      	RJMP _0x20A000B
                 ; 0000 03FF }
                 
                 	.DSEG
                 _0x30:
002400           	.BYTE 0x8
                 ;void clear(void)
                 ; 0000 0401 {
                 
                 	.CSEG
                 _clear:
                 ; 0000 0402     MAX7456_SPI_WRITE(0x04, 0x04);         // RAM초기화(화면초기화)
00059d 940e 0f14 	CALL SUBOPT_0x4
00059f 940e 0f14 	CALL SUBOPT_0x4
0005a1 df39      	RCALL _MAX7456_SPI_WRITE
                 ; 0000 0403     puts("CLEAR!\r");
                +
0005a2 e0e8     +LDI R30 , LOW ( _0x31 + ( 0 ) )
0005a3 e2f4     +LDI R31 , HIGH ( _0x31 + ( 0 ) )
                 	__POINTW1MN _0x31,0
0005a4 c00e      	RJMP _0x20A000B
                 ; 0000 0404 }
                 
                 	.DSEG
                 _0x31:
002408           	.BYTE 0x8
                 ;void on(void)
                 ; 0000 0406 {
                 
                 	.CSEG
                 _on:
                 ; 0000 0407     MAX7456_SPI_WRITE(0x00, 0x0c);         // OSD ON
0005a5 940e 0f0a 	CALL SUBOPT_0x3
                 ; 0000 0408     puts("OSD ON!\r");
                +
0005a7 e1e0     +LDI R30 , LOW ( _0x32 + ( 0 ) )
0005a8 e2f4     +LDI R31 , HIGH ( _0x32 + ( 0 ) )
                 	__POINTW1MN _0x32,0
0005a9 c009      	RJMP _0x20A000B
                 ; 0000 0409 }
                 
                 	.DSEG
                 _0x32:
002410           	.BYTE 0x9
                 ;void off(void)
                 ; 0000 040B {
                 
                 	.CSEG
                 _off:
                 ; 0000 040C     MAX7456_SPI_WRITE(0x00, 0x04);         // OSD OFF
0005aa e0e0      	LDI  R30,LOW(0)
0005ab e0f0      	LDI  R31,HIGH(0)
0005ac 93fa      	ST   -Y,R31
0005ad 93ea      	ST   -Y,R30
0005ae 940e 0f14 	CALL SUBOPT_0x4
0005b0 df2a      	RCALL _MAX7456_SPI_WRITE
                 ; 0000 040D     puts("OSD OFF!\r");
                +
0005b1 e1e9     +LDI R30 , LOW ( _0x33 + ( 0 ) )
0005b2 e2f4     +LDI R31 , HIGH ( _0x33 + ( 0 ) )
                 	__POINTW1MN _0x33,0
                 _0x20A000B:
0005b3 93fa      	ST   -Y,R31
0005b4 93ea      	ST   -Y,R30
0005b5 d4bb      	RCALL _puts
                 ; 0000 040E }
0005b6 9508      	RET
                 
                 	.DSEG
                 _0x33:
002419           	.BYTE 0xA
                 ;void col(char value)                        // 가로 몇번째 칸에 쓸것인지 결정(1~27)
                 ; 0000 0410 {
                 
                 	.CSEG
                 _col:
                 ; 0000 0411     if(value=='0')                                          // 1~9 칸 중
                 ;	value -> Y+0
0005b7 81a8      	LD   R26,Y
0005b8 33a0      	CPI  R26,LOW(0x30)
0005b9 f421      	BRNE _0x34
                 ; 0000 0412     {
                 ; 0000 0413         col_pointer=(int)(command[4]-'0');                  // 포인터값에 왼쪽부터 몇번째칸인지 지정
0005ba 940e 0f38 	CALL SUBOPT_0xA
0005bc 011f      	MOVW R2,R30
                 ; 0000 0414     }
                 ; 0000 0415     else if(value=='1')                                     // 10~19 칸 중
0005bd c01d      	RJMP _0x35
                 _0x34:
0005be 81a8      	LD   R26,Y
0005bf 33a1      	CPI  R26,LOW(0x31)
0005c0 f429      	BRNE _0x36
                 ; 0000 0416     {
                 ; 0000 0417         col_pointer=(int)(command[4]-'0'+10);
0005c1 940e 0f38 	CALL SUBOPT_0xA
0005c3 963a      	ADIW R30,10
0005c4 011f      	MOVW R2,R30
                 ; 0000 0418     }
                 ; 0000 0419     else if(value=='2')                                     // 20~27 칸 중
0005c5 c015      	RJMP _0x37
                 _0x36:
0005c6 81a8      	LD   R26,Y
0005c7 33a2      	CPI  R26,LOW(0x32)
0005c8 f471      	BRNE _0x38
                 ; 0000 041A     {
                 ; 0000 041B         if(command[4]>'7') puts("range of column is 1~27\r");
                +
0005c9 91a0 2694+LDS R26 , _command + ( 4 )
                 	__GETB2MN _command,4
0005cb 33a8      	CPI  R26,LOW(0x38)
0005cc f028      	BRLO _0x39
                +
0005cd e2e3     +LDI R30 , LOW ( _0x3A + ( 0 ) )
0005ce e2f4     +LDI R31 , HIGH ( _0x3A + ( 0 ) )
                 	__POINTW1MN _0x3A,0
0005cf 940e 0f3d 	CALL SUBOPT_0xB
                 ; 0000 041C         else
0005d1 c004      	RJMP _0x3B
                 _0x39:
                 ; 0000 041D         col_pointer=((int)command[4]-'0'+20);
0005d2 940e 0f38 	CALL SUBOPT_0xA
0005d4 9674      	ADIW R30,20
0005d5 011f      	MOVW R2,R30
                 ; 0000 041E     }
                 _0x3B:
                 ; 0000 041F     else puts("range of column is 1~27\r");
0005d6 c004      	RJMP _0x3C
                 _0x38:
                +
0005d7 e3ec     +LDI R30 , LOW ( _0x3A + ( 25 ) )
0005d8 e2f4     +LDI R31 , HIGH ( _0x3A + ( 25 ) )
                 	__POINTW1MN _0x3A,25
0005d9 940e 0f3d 	CALL SUBOPT_0xB
                 ; 0000 0420     puts("Col Pointer : ");
                 _0x3C:
                 _0x37:
                 _0x35:
                +
0005db e5e5     +LDI R30 , LOW ( _0x3A + ( 50 ) )
0005dc e2f4     +LDI R31 , HIGH ( _0x3A + ( 50 ) )
                 	__POINTW1MN _0x3A,50
0005dd 940e 0f3d 	CALL SUBOPT_0xB
                 ; 0000 0421     putchar('0'+col_pointer/100);
0005df 01d1      	MOVW R26,R2
0005e0 940e 0f41 	CALL SUBOPT_0xC
                 ; 0000 0422     putchar('0'+col_pointer%100/10);
0005e2 01d1      	MOVW R26,R2
0005e3 940e 0f49 	CALL SUBOPT_0xD
                 ; 0000 0423     putchar('0'+col_pointer%10);
0005e5 01d1      	MOVW R26,R2
0005e6 940e 0f56 	CALL SUBOPT_0xE
                 ; 0000 0424     puts("\r");
                +
0005e8 e6e4     +LDI R30 , LOW ( _0x3A + ( 65 ) )
0005e9 e2f4     +LDI R31 , HIGH ( _0x3A + ( 65 ) )
                 	__POINTW1MN _0x3A,65
0005ea c02b      	RJMP _0x20A0009
                 ; 0000 0425 }
                 
                 	.DSEG
                 _0x3A:
002423           	.BYTE 0x43
                 ;void row(char value)                                        // 세로 몇번째 줄에 쓸것인지 결정(1~12)
                 ; 0000 0427 {
                 
                 	.CSEG
                 _row:
                 ; 0000 0428     if(value=='0')
                 ;	value -> Y+0
0005eb 81a8      	LD   R26,Y
0005ec 33a0      	CPI  R26,LOW(0x30)
0005ed f421      	BRNE _0x3D
                 ; 0000 0429     {                                                       // 1~9 줄 중
                 ; 0000 042A         row_pointer=(int)(command[4]-'0');                  // 포인터값에 왼쪽부터 몇번째칸인지 지정
0005ee 940e 0f38 	CALL SUBOPT_0xA
0005f0 012f      	MOVW R4,R30
                 ; 0000 042B     }
                 ; 0000 042C     else if(value=='1')                                     // 10~12 줄 중
0005f1 c015      	RJMP _0x3E
                 _0x3D:
0005f2 81a8      	LD   R26,Y
0005f3 33a1      	CPI  R26,LOW(0x31)
0005f4 f471      	BRNE _0x3F
                 ; 0000 042D     {
                 ; 0000 042E         if(command[4]>'2') puts("range of row is 1~12\r");
                +
0005f5 91a0 2694+LDS R26 , _command + ( 4 )
                 	__GETB2MN _command,4
0005f7 33a3      	CPI  R26,LOW(0x33)
0005f8 f028      	BRLO _0x40
                +
0005f9 e6e6     +LDI R30 , LOW ( _0x41 + ( 0 ) )
0005fa e2f4     +LDI R31 , HIGH ( _0x41 + ( 0 ) )
                 	__POINTW1MN _0x41,0
0005fb 940e 0f3d 	CALL SUBOPT_0xB
                 ; 0000 042F         else
0005fd c004      	RJMP _0x42
                 _0x40:
                 ; 0000 0430         row_pointer=((int)command[4]-'0'+10);
0005fe 940e 0f38 	CALL SUBOPT_0xA
000600 963a      	ADIW R30,10
000601 012f      	MOVW R4,R30
                 ; 0000 0431     }
                 _0x42:
                 ; 0000 0432     else puts("range of row is 1~12\r");
000602 c004      	RJMP _0x43
                 _0x3F:
                +
000603 e7ec     +LDI R30 , LOW ( _0x41 + ( 22 ) )
000604 e2f4     +LDI R31 , HIGH ( _0x41 + ( 22 ) )
                 	__POINTW1MN _0x41,22
000605 940e 0f3d 	CALL SUBOPT_0xB
                 ; 0000 0433     puts("Row Pointer : ");
                 _0x43:
                 _0x3E:
                +
000607 e9e2     +LDI R30 , LOW ( _0x41 + ( 44 ) )
000608 e2f4     +LDI R31 , HIGH ( _0x41 + ( 44 ) )
                 	__POINTW1MN _0x41,44
000609 940e 0f3d 	CALL SUBOPT_0xB
                 ; 0000 0434     putchar('0'+row_pointer/100);
00060b 01d2      	MOVW R26,R4
00060c 940e 0f41 	CALL SUBOPT_0xC
                 ; 0000 0435     putchar('0'+row_pointer%100/10);
00060e 01d2      	MOVW R26,R4
00060f 940e 0f49 	CALL SUBOPT_0xD
                 ; 0000 0436     putchar('0'+row_pointer%10);
000611 01d2      	MOVW R26,R4
000612 940e 0f56 	CALL SUBOPT_0xE
                 ; 0000 0437     puts("\r");
                +
000614 eae1     +LDI R30 , LOW ( _0x41 + ( 59 ) )
000615 e2f4     +LDI R31 , HIGH ( _0x41 + ( 59 ) )
                 	__POINTW1MN _0x41,59
                 _0x20A0009:
000616 93fa      	ST   -Y,R31
000617 93ea      	ST   -Y,R30
000618 d458      	RCALL _puts
                 ; 0000 0438 }
                 _0x20A000A:
000619 9621      	ADIW R28,1
00061a 9508      	RET
                 
                 	.DSEG
                 _0x41:
002466           	.BYTE 0x3D
                 ;void chat()       // ->문자입력; 했을 시 OSD에 문자입력이 나오도록함
                 ; 0000 043A {
                 
                 	.CSEG
                 _chat:
                 ; 0000 043B     int j,k;
                 ; 0000 043C     for(j=1;j<30;j++)                                       // ->(command[1])이후 ;가 나올때까지 uc의 총 길이는 0~29
00061b 940e 13b2 	CALL __SAVELOCR4
                 ;	j -> R16,R17
                 ;	k -> R18,R19
                +
00061d e001     +LDI R16 , LOW ( 1 )
00061e e010     +LDI R17 , HIGH ( 1 )
                 	__GETWRN 16,17,1
                 _0x45:
                +
00061f 310e     +CPI R16 , LOW ( 30 )
000620 e0e0     +LDI R30 , HIGH ( 30 )
000621 071e     +CPC R17 , R30
                 	__CPWRN 16,17,30
000622 f544      	BRGE _0x46
                 ; 0000 043D         {
                 ; 0000 043E             k=j;                                            // j값은 순차적으로 k로 저장하고 2,3,4,5,....28, 29
000623 940e 0f5e 	CALL SUBOPT_0xF
                 ; 0000 043F             if(command[k]==';' && command[k+1]==13)          // (command[2], command[3]... command[29]중에) command[k]에 ; 가 나오면
000625 f431      	BRNE _0x48
000626 01f9      	MOVW R30,R18
                +
000627 56ef     +SUBI R30 , LOW ( - _command - ( 1 ) )
000628 4df9     +SBCI R31 , HIGH ( - _command - ( 1 ) )
                 	__ADDW1MN _command,1
000629 81a0      	LD   R26,Z
00062a 30ad      	CPI  R26,LOW(0xD)
00062b f009      	BREQ _0x49
                 _0x48:
00062c c01b      	RJMP _0x47
                 _0x49:
                 ; 0000 0440             {
                 ; 0000 0441                 col_pointer=col_pointer+(k-1);              // 포인터를 입력된 문자개수에 위치시킴 ex) >abcde;라면 >;를 제외하고 총 5개 글자만큼 포인터를 이동
00062d 01f9      	MOVW R30,R18
00062e 9731      	SBIW R30,1
                +
00062f 0e2e     +ADD R2 , R30
000630 1e3f     +ADC R3 , R31
                 	__ADDWRR 2,3,30,31
                 ; 0000 0442                 //command[k]=NULL;                          // 해당 ';'가 들어있는 명령어배열은 비움
                 ; 0000 0443                 for(k=k-1 ; k>0; k--)                       // 입력된 문자개수만큼                 ex) abcde; 에서 ;를 뺀만큼
                +
000631 5021     +SUBI R18 , LOW ( 1 )
000632 4030     +SBCI R19 , HIGH ( 1 )
                 	__SUBWRN 18,19,1
                 _0x4B:
000633 2400      	CLR  R0
000634 1602      	CP   R0,R18
000635 0603      	CPC  R0,R19
000636 f464      	BRGE _0x4C
                 ; 0000 0444                 {
                 ; 0000 0445                     col_pointer--;                          // 포인터를 역순으로
000637 01f1      	MOVW R30,R2
000638 9731      	SBIW R30,1
000639 011f      	MOVW R2,R30
                 ; 0000 0446                     MAX7456_Write(row_pointer, col_pointer, OSDchr[command[k]]);    // 입력된 글자를 출력해야 화면엔 abcde로 보임
00063a 925a      	ST   -Y,R5
00063b 924a      	ST   -Y,R4
00063c 923a      	ST   -Y,R3
00063d 922a      	ST   -Y,R2
00063e 940e 0f66 	CALL SUBOPT_0x10
                 ; 0000 0447                 }
                +
000640 5021     +SUBI R18 , LOW ( 1 )
000641 4030     +SBCI R19 , HIGH ( 1 )
                 	__SUBWRN 18,19,1
000642 cff0      	RJMP _0x4B
                 _0x4C:
                 ; 0000 0448                                                            //화면출력
                 ; 0000 0449                 puts("CHAT!\r");
                +
000643 eae3     +LDI R30 , LOW ( _0x4D + ( 0 ) )
000644 e2f4     +LDI R31 , HIGH ( _0x4D + ( 0 ) )
                 	__POINTW1MN _0x4D,0
000645 940e 0f3d 	CALL SUBOPT_0xB
                 ; 0000 044A                 com_reset();
000647 df05      	RCALL _com_reset
                 ; 0000 044B             }
                 ; 0000 044C         }
                 _0x47:
                +
000648 5f0f     +SUBI R16 , LOW ( - 1 )
000649 4f1f     +SBCI R17 , HIGH ( - 1 )
                 	__ADDWRN 16,17,1
00064a cfd4      	RJMP _0x45
                 _0x46:
                 ; 0000 044D }
00064b 940e 13b9 	CALL __LOADLOCR4
00064d c149      	RJMP _0x20A0006
                 
                 	.DSEG
                 _0x4D:
0024a3           	.BYTE 0x7
                 ;void title()
                 ; 0000 044F {
                 
                 	.CSEG
                 _title:
                 ; 0000 0450     int j,k;
                 ; 0000 0451     for(j=3;j<30;j++)                                                           // ->(command[1])이후 ;가 나올때까지 uc의 총 길이는 0~29
00064e 940e 13b2 	CALL __SAVELOCR4
                 ;	j -> R16,R17
                 ;	k -> R18,R19
                +
000650 e003     +LDI R16 , LOW ( 3 )
000651 e010     +LDI R17 , HIGH ( 3 )
                 	__GETWRN 16,17,3
                 _0x4F:
                +
000652 310e     +CPI R16 , LOW ( 30 )
000653 e0e0     +LDI R30 , HIGH ( 30 )
000654 071e     +CPC R17 , R30
                 	__CPWRN 16,17,30
000655 f58c      	BRGE _0x50
                 ; 0000 0452         {
                 ; 0000 0453             k=j;                                                                // j값은 순차적으로 k로 저장하고 2,3,4,5,....28, 29
000656 940e 0f5e 	CALL SUBOPT_0xF
                 ; 0000 0454             if(command[k]==';' && command[k+1]==13)                             // (command[2], command[3]... command[29]중에) command[k]에 ; 가 나오면
000658 f431      	BRNE _0x52
000659 01f9      	MOVW R30,R18
                +
00065a 56ef     +SUBI R30 , LOW ( - _command - ( 1 ) )
00065b 4df9     +SBCI R31 , HIGH ( - _command - ( 1 ) )
                 	__ADDW1MN _command,1
00065c 81a0      	LD   R26,Z
00065d 30ad      	CPI  R26,LOW(0xD)
00065e f009      	BREQ _0x53
                 _0x52:
00065f c024      	RJMP _0x51
                 _0x53:
                 ; 0000 0455             {
                 ; 0000 0456                 title_pointer = title_pointer+(k-3);                            // 포인터를 입력된 문자개수에 위치시킴 ex) >abcde;라면 >;를 제외하고 총 5개 글자만큼 포인터를 이동
000660 01f9      	MOVW R30,R18
000661 9733      	SBIW R30,3
                +
000662 0e6e     +ADD R6 , R30
000663 1e7f     +ADC R7 , R31
                 	__ADDWRR 6,7,30,31
                 ; 0000 0457                 if(title_pointer>=18) puts("Title is too long!(Max:15)\r");     // 최대 15글자까지 출력제한
000664 e1e2      	LDI  R30,LOW(18)
000665 e0f0      	LDI  R31,HIGH(18)
000666 166e      	CP   R6,R30
000667 067f      	CPC  R7,R31
000668 f01c      	BRLT _0x54
                +
000669 eaea     +LDI R30 , LOW ( _0x55 + ( 0 ) )
00066a e2f4     +LDI R31 , HIGH ( _0x55 + ( 0 ) )
                 	__POINTW1MN _0x55,0
00066b c014      	RJMP _0xCC
                 ; 0000 0458                 else
                 _0x54:
                 ; 0000 0459                 {
                 ; 0000 045A                     for(k=k-1 ; k>2; k--)                                       // 입력된 문자개수만큼                 ex) abcde; 에서 ;를 뺀만큼
                +
00066c 5021     +SUBI R18 , LOW ( 1 )
00066d 4030     +SBCI R19 , HIGH ( 1 )
                 	__SUBWRN 18,19,1
                 _0x58:
                +
00066e 3023     +CPI R18 , LOW ( 3 )
00066f e0e0     +LDI R30 , HIGH ( 3 )
000670 073e     +CPC R19 , R30
                 	__CPWRN 18,19,3
000671 f064      	BRLT _0x59
                 ; 0000 045B                     {
                 ; 0000 045C                       title_pointer--;                                          // 포인터를 역순으로
000672 01f3      	MOVW R30,R6
000673 9731      	SBIW R30,1
000674 013f      	MOVW R6,R30
                 ; 0000 045D                       MAX7456_Write(11, title_pointer, OSDchr[command[k]]);     // 입력된 글자를 출력해야 화면엔 abcde로 보임
000675 940e 0f70 	CALL SUBOPT_0x11
000677 927a      	ST   -Y,R7
000678 926a      	ST   -Y,R6
000679 940e 0f66 	CALL SUBOPT_0x10
                 ; 0000 045E                     }
                +
00067b 5021     +SUBI R18 , LOW ( 1 )
00067c 4030     +SBCI R19 , HIGH ( 1 )
                 	__SUBWRN 18,19,1
00067d cff0      	RJMP _0x58
                 _0x59:
                 ; 0000 045F                     puts("TITLE!\r");                                           //화면출력
                +
00067e ece6     +LDI R30 , LOW ( _0x55 + ( 28 ) )
00067f e2f4     +LDI R31 , HIGH ( _0x55 + ( 28 ) )
                 	__POINTW1MN _0x55,28
                 _0xCC:
000680 93fa      	ST   -Y,R31
000681 93ea      	ST   -Y,R30
000682 d3ee      	RCALL _puts
                 ; 0000 0460                 }
                 ; 0000 0461                 com_reset();
000683 dec9      	RCALL _com_reset
                 ; 0000 0462             }
                 ; 0000 0463         }
                 _0x51:
                +
000684 5f0f     +SUBI R16 , LOW ( - 1 )
000685 4f1f     +SBCI R17 , HIGH ( - 1 )
                 	__ADDWRN 16,17,1
000686 cfcb      	RJMP _0x4F
                 _0x50:
                 ; 0000 0464 }
000687 940e 13b9 	CALL __LOADLOCR4
000689 c10d      	RJMP _0x20A0006
                 
                 	.DSEG
                 _0x55:
0024aa           	.BYTE 0x24
                 ;////////////////////////////////////////////////////////////encorder////////////////////////////////////////////////////////////////
                 ;void init_LS7366(void) {
                 ; 0000 0466 void init_LS7366(void) {
                 
                 	.CSEG
                 _init_LS7366:
                 ; 0000 0467 
                 ; 0000 0468  LS7366_SS_L_H                                 // Initialize SS
00068a 940e 0f75 	CALL SUBOPT_0x12
                 ; 0000 0469 
                 ; 0000 046A  LS7366_SS_H_L                                 // Set MDR0 X4 Count Mode
                 ; 0000 046B  spid_master_tx_rx(SELECT_MDR0 | WR_REG);
00068c e8e8      	LDI  R30,LOW(136)
00068d 93ea      	ST   -Y,R30
00068e de42      	RCALL _spid_master_tx_rx
                 ; 0000 046C  spid_master_tx_rx(X1_QUAD | FREE_RUN | DISABLE_INDEX | SYNCHRONOUS_INDEX | FILTER_CDF_1 );
00068f e4e1      	LDI  R30,LOW(65)
000690 93ea      	ST   -Y,R30
000691 de3f      	RCALL _spid_master_tx_rx
                 ; 0000 046D  LS7366_SS_L_H
000692 940e 0f75 	CALL SUBOPT_0x12
                 ; 0000 046E 
                 ; 0000 046F  LS7366_SS_H_L                                 // Set MDR1 4 Bytes Counter Mode
                 ; 0000 0470  spid_master_tx_rx(SELECT_MDR1 | WR_REG);
000694 e9e0      	LDI  R30,LOW(144)
000695 940e 0f7c 	CALL SUBOPT_0x13
                 ; 0000 0471  spid_master_tx_rx(FOUR_BYTE_COUNT_MODE | ENABLE_COUNTING);
                 ; 0000 0472  LS7366_SS_L_H
000697 e1e0      	LDI  R30,LOW(16)
000698 93e0 0664 	STS  1636,R30
                 ; 0000 0473 
                 ; 0000 0474  LS7366_SS_H_L                               // Clear(0) CNTR Register
                 ; 0000 0475  spid_master_tx_rx(SELECT_CNTR | CLR_REG);
                 ; 0000 0476  LS7366_SS_L_H
                 ; 0000 0477 }
                 ;
                 ;void reset_LS7366(void)
                 ; 0000 047A {
                 _reset_LS7366:
                 ; 0000 047B     LS7366_SS_H_L
                 _0x20A0008:
00069a e0e0      	LDI  R30,LOW(0)
00069b 93e0 0664 	STS  1636,R30
                 ; 0000 047C     spid_master_tx_rx(SELECT_CNTR | CLR_REG);
00069d e2e0      	LDI  R30,LOW(32)
00069e 93ea      	ST   -Y,R30
00069f de31      	RCALL _spid_master_tx_rx
                 ; 0000 047D     LS7366_SS_L_H
0006a0 e1e0      	LDI  R30,LOW(16)
0006a1 93e0 0664 	STS  1636,R30
                 ; 0000 047E }
0006a3 9508      	RET
                 ;
                 ;
                 ;unsigned int encorder_pointer;
                 ;char temp[30]="";
                 ;void putstringc1(char *command)
                 ; 0000 0484 {
                 _putstringc1:
                 ; 0000 0485     int i=0;
                 ; 0000 0486     while(*(command+i) !=0)
0006a4 931a      	ST   -Y,R17
0006a5 930a      	ST   -Y,R16
                 ;	*command -> Y+2
                 ;	i -> R16,R17
                +
0006a6 e000     +LDI R16 , LOW ( 0 )
0006a7 e010     +LDI R17 , HIGH ( 0 )
                 	__GETWRN 16,17,0
                 _0x5A:
0006a8 01f8      	MOVW R30,R16
0006a9 940e 0f1d 	CALL SUBOPT_0x6
0006ab 91ec      	LD   R30,X
0006ac 30e0      	CPI  R30,0
0006ad f149      	BREQ _0x5C
                 ; 0000 0487     {
                 ; 0000 0488         putchar(*(command+i));
0006ae 01f8      	MOVW R30,R16
0006af 940e 0f1d 	CALL SUBOPT_0x6
0006b1 91ec      	LD   R30,X
0006b2 93ea      	ST   -Y,R30
0006b3 ddf9      	RCALL _putchar
                 ; 0000 0489         MAX7456_Write(1, encorder_pointer, OSDchr[*(command+i)]);
0006b4 940e 0f83 	CALL SUBOPT_0x14
0006b6 01f8      	MOVW R30,R16
0006b7 81ae      	LDD  R26,Y+6
0006b8 81bf      	LDD  R27,Y+6+1
0006b9 0fae      	ADD  R26,R30
0006ba 1fbf      	ADC  R27,R31
0006bb 91ec      	LD   R30,X
0006bc 940e 0f8e 	CALL SUBOPT_0x15
                 ; 0000 048A         encorder_pointer+=1;
0006be 91e0 26b2 	LDS  R30,_encorder_pointer
0006c0 91f0 26b3 	LDS  R31,_encorder_pointer+1
0006c2 9631      	ADIW R30,1
0006c3 940e 0f93 	CALL SUBOPT_0x16
                 ; 0000 048B         temp[i]=*(command+i);       //encorder의 출력 값이 다음타이밍(10ms)이후 들어온 값과 같은지 확인하기위한 용도의변수(중복된 값을 화면에 출력하는 낭비를 막기위해)
0006c5 01f8      	MOVW R30,R16
0006c6 54ec      	SUBI R30,LOW(-_temp)
0006c7 4df9      	SBCI R31,HIGH(-_temp)
0006c8 010f      	MOVW R0,R30
0006c9 01f8      	MOVW R30,R16
0006ca 940e 0f1d 	CALL SUBOPT_0x6
0006cc 91ec      	LD   R30,X
0006cd 01d0      	MOVW R26,R0
0006ce 93ec      	ST   X,R30
                 ; 0000 048C         temp[i+1]=NULL;
0006cf 01f8      	MOVW R30,R16
                +
0006d0 54eb     +SUBI R30 , LOW ( - _temp - ( 1 ) )
0006d1 4df9     +SBCI R31 , HIGH ( - _temp - ( 1 ) )
                 	__ADDW1MN _temp,1
0006d2 e0a0      	LDI  R26,LOW(0)
0006d3 83a0      	STD  Z+0,R26
                 ; 0000 048D         i++;
                +
0006d4 5f0f     +SUBI R16 , LOW ( - 1 )
0006d5 4f1f     +SBCI R17 , HIGH ( - 1 )
                 	__ADDWRN 16,17,1
                 ; 0000 048E     }
0006d6 cfd1      	RJMP _0x5A
                 _0x5C:
                 ; 0000 048F     MAX7456_Write(1, encorder_pointer, OSDchr[' ']);    //encorder값이 예를들어 1234였다가 123이되면 뒤에 4에 대한 잔상이 남는다 그것을 지우기위해 123뒤에 ' ' 을 넣어준다.
0006d7 940e 0f83 	CALL SUBOPT_0x14
                +
0006d9 91e0 257f+LDS R30 , _OSDchr + ( 32 )
                 	__GETB1MN _OSDchr,32
0006db 940e 0f33 	CALL SUBOPT_0x9
                 ; 0000 0490     encorder_pointer-=i;
0006dd 91e0 26b2 	LDS  R30,_encorder_pointer
0006df 91f0 26b3 	LDS  R31,_encorder_pointer+1
0006e1 1be0      	SUB  R30,R16
0006e2 0bf1      	SBC  R31,R17
0006e3 940e 0f93 	CALL SUBOPT_0x16
                 ; 0000 0491     puts("\r");
                +
0006e5 ecee     +LDI R30 , LOW ( _0x5D + ( 0 ) )
0006e6 e2f4     +LDI R31 , HIGH ( _0x5D + ( 0 ) )
                 	__POINTW1MN _0x5D,0
0006e7 940e 0f3d 	CALL SUBOPT_0xB
                 ; 0000 0492 }
0006e9 8119      	LDD  R17,Y+1
0006ea 8108      	LDD  R16,Y+0
0006eb c0ab      	RJMP _0x20A0006
                 
                 	.DSEG
                 _0x5D:
0024ce           	.BYTE 0x2
                 ;////////////////////////////////////////////////////////////////RTC/////////////////////////////////////////////////////////////////
                 ;unsigned char timer_pointer=1;
                 ;unsigned char hour=0;
                 ;void ontime_hour(void)
                 ; 0000 0497 {
                 
                 	.CSEG
                 _ontime_hour:
                 ; 0000 0498     //hour=s%86400;
                 ; 0000 0499     int a=RTC_sec%86400;
                 ; 0000 049A     if(hour>=23 || a==0) hour=0;
0006ec 940e 0f98 	CALL SUBOPT_0x17
                 ;	a -> R16,R17
                +
0006ee e8e0     +LDI R30 , LOW ( 0x15180 )
0006ef e5f1     +LDI R31 , HIGH ( 0x15180 )
0006f0 e061     +LDI R22 , BYTE3 ( 0x15180 )
0006f1 e070     +LDI R23 , BYTE4 ( 0x15180 )
                 	__GETD1N 0x15180
0006f2 940e 135e 	CALL __MODD21U
0006f4 018f      	MOVW R16,R30
0006f5 91a0 26d3 	LDS  R26,_hour
0006f7 31a7      	CPI  R26,LOW(0x17)
0006f8 f420      	BRSH _0x60
0006f9 2400      	CLR  R0
0006fa 1600      	CP   R0,R16
0006fb 0601      	CPC  R0,R17
0006fc f411      	BRNE _0x5F
                 _0x60:
0006fd e0e0      	LDI  R30,LOW(0)
0006fe c003      	RJMP _0xCD
                 ; 0000 049B     else hour++;
                 _0x5F:
0006ff 91e0 26d3 	LDS  R30,_hour
000701 5fef      	SUBI R30,-LOW(1)
                 _0xCD:
000702 93e0 26d3 	STS  _hour,R30
                 ; 0000 049C     timer_pointer+=2;
000704 91e0 26d2 	LDS  R30,_timer_pointer
000706 5fee      	SUBI R30,-LOW(2)
000707 940e 0fa3 	CALL SUBOPT_0x18
                 ; 0000 049D     MAX7456_Write(1, timer_pointer, OSDchr[':']);               // :
                +
000709 91e0 2599+LDS R30 , _OSDchr + ( 58 )
                 	__GETB1MN _OSDchr,58
00070b 940e 0f33 	CALL SUBOPT_0x9
                 ; 0000 049E     timer_pointer--;
00070d 940e 0faf 	CALL SUBOPT_0x19
                 ; 0000 049F     MAX7456_Write(1, timer_pointer, OSDchr['0'+(hour%10)]);     // 1hour
00070f 91a0 26d3 	LDS  R26,_hour
000711 27bb      	CLR  R27
000712 940e 0fb3 	CALL SUBOPT_0x1A
                 ; 0000 04A0     timer_pointer--;
000714 940e 0faf 	CALL SUBOPT_0x19
                 ; 0000 04A1     MAX7456_Write(1, timer_pointer, OSDchr['0'+(hour/10)]);     // 10hour
000716 91a0 26d3 	LDS  R26,_hour
000718 e0b0      	LDI  R27,0
000719 940e 0fbb 	CALL SUBOPT_0x1B
                 ; 0000 04A2 }
00071b c03a      	RJMP _0x20A0007
                 ;int minu=0;
                 ;void ontime_min(void)
                 ; 0000 04A5 {
                 _ontime_min:
                 ; 0000 04A6     //min=s%3600;
                 ; 0000 04A7     int a=RTC_sec%3600;
                 ; 0000 04A8     if(minu>=59 || a==0)
00071c 940e 0f98 	CALL SUBOPT_0x17
                 ;	a -> R16,R17
                +
00071e e1e0     +LDI R30 , LOW ( 0xE10 )
00071f e0fe     +LDI R31 , HIGH ( 0xE10 )
000720 e060     +LDI R22 , BYTE3 ( 0xE10 )
000721 e070     +LDI R23 , BYTE4 ( 0xE10 )
                 	__GETD1N 0xE10
000722 940e 135e 	CALL __MODD21U
000724 018f      	MOVW R16,R30
000725 940e 0fc3 	CALL SUBOPT_0x1C
000727 97db      	SBIW R26,59
000728 f424      	BRGE _0x64
000729 2400      	CLR  R0
00072a 1600      	CP   R0,R16
00072b 0601      	CPC  R0,R17
00072c f439      	BRNE _0x63
                 _0x64:
                 ; 0000 04A9     {
                 ; 0000 04AA         minu=0;
00072d e0e0      	LDI  R30,LOW(0)
00072e 93e0 26d4 	STS  _minu,R30
000730 93e0 26d5 	STS  _minu+1,R30
                 ; 0000 04AB         ontime_hour();
000732 dfb9      	RCALL _ontime_hour
                 ; 0000 04AC     }
                 ; 0000 04AD     else minu++;
000733 c007      	RJMP _0x66
                 _0x63:
000734 91e0 26d4 	LDS  R30,_minu
000736 91f0 26d5 	LDS  R31,_minu+1
000738 9631      	ADIW R30,1
000739 940e 0fc8 	CALL SUBOPT_0x1D
                 ; 0000 04AE     timer_pointer+=5;
                 _0x66:
00073b 91e0 26d2 	LDS  R30,_timer_pointer
00073d 5feb      	SUBI R30,-LOW(5)
00073e 940e 0fa3 	CALL SUBOPT_0x18
                 ; 0000 04AF     MAX7456_Write(1, timer_pointer, OSDchr[':']);                // :
                +
000740 91e0 2599+LDS R30 , _OSDchr + ( 58 )
                 	__GETB1MN _OSDchr,58
000742 940e 0f33 	CALL SUBOPT_0x9
                 ; 0000 04B0     timer_pointer--;
000744 940e 0faf 	CALL SUBOPT_0x19
                 ; 0000 04B1     MAX7456_Write(1, timer_pointer, OSDchr['0'+(minu%10)]);      // 1min
000746 940e 0fc3 	CALL SUBOPT_0x1C
000748 940e 0fb3 	CALL SUBOPT_0x1A
                 ; 0000 04B2     timer_pointer--;
00074a 940e 0faf 	CALL SUBOPT_0x19
                 ; 0000 04B3     MAX7456_Write(1, timer_pointer, OSDchr['0'+(minu/10)]);      // 10min
00074c 940e 0fc3 	CALL SUBOPT_0x1C
00074e 940e 0fbb 	CALL SUBOPT_0x1B
                 ; 0000 04B4     timer_pointer-=3;
000750 91e0 26d2 	LDS  R30,_timer_pointer
000752 e0f0      	LDI  R31,0
000753 9733      	SBIW R30,3
000754 93e0 26d2 	STS  _timer_pointer,R30
                 ; 0000 04B5 }
                 _0x20A0007:
000756 9109      	LD   R16,Y+
000757 9119      	LD   R17,Y+
000758 9508      	RET
                 ;void ontime_sec(void)
                 ; 0000 04B7 {
                 _ontime_sec:
                 ; 0000 04B8     unsigned long int a;
                 ; 0000 04B9     RTC_flag=0;
000759 9724      	SBIW R28,4
                 ;	a -> Y+0
00075a 9801      	CBI  0x0,1
                 ; 0000 04BA     if(hour>=24) RTC_sec=0;
00075b 91a0 26d3 	LDS  R26,_hour
00075d 31a8      	CPI  R26,LOW(0x18)
00075e f018      	BRLO _0x69
00075f 940e 0fcd 	CALL SUBOPT_0x1E
                 ; 0000 04BB     else{
000761 c035      	RJMP _0x6A
                 _0x69:
                 ; 0000 04BC     a=RTC_sec%60;
000762 91a0 2681 	LDS  R26,_RTC_sec
000764 91b0 2682 	LDS  R27,_RTC_sec+1
000766 9180 2683 	LDS  R24,_RTC_sec+2
000768 9190 2684 	LDS  R25,_RTC_sec+3
                +
00076a e3ec     +LDI R30 , LOW ( 0x3C )
00076b e0f0     +LDI R31 , HIGH ( 0x3C )
00076c e060     +LDI R22 , BYTE3 ( 0x3C )
00076d e070     +LDI R23 , BYTE4 ( 0x3C )
                 	__GETD1N 0x3C
00076e 940e 135e 	CALL __MODD21U
000770 940e 1395 	CALL __PUTD1S0
                 ; 0000 04BD     timer_pointer+=7;
000772 91e0 26d2 	LDS  R30,_timer_pointer
000774 5fe9      	SUBI R30,-LOW(7)
000775 940e 0fa3 	CALL SUBOPT_0x18
                 ; 0000 04BE     MAX7456_Write(1, timer_pointer, OSDchr['0'+(a%10)]);    // 1sec
000777 940e 0fd7 	CALL SUBOPT_0x1F
000779 940e 135e 	CALL __MODD21U
                +
00077b 57e1     +SUBI R30 , LOW ( - _OSDchr - ( 48 ) )
00077c 4dfa     +SBCI R31 , HIGH ( - _OSDchr - ( 48 ) )
                 	__ADDW1MN _OSDchr,48
00077d 81e0      	LD   R30,Z
00077e 940e 0f33 	CALL SUBOPT_0x9
                 ; 0000 04BF     timer_pointer--;
000780 940e 0faf 	CALL SUBOPT_0x19
                 ; 0000 04C0     MAX7456_Write(1, timer_pointer, OSDchr['0'+(a/10)]);    // 10sec
000782 940e 0fd7 	CALL SUBOPT_0x1F
000784 940e 131f 	CALL __DIVD21U
                +
000786 57e1     +SUBI R30 , LOW ( - _OSDchr - ( 48 ) )
000787 4dfa     +SBCI R31 , HIGH ( - _OSDchr - ( 48 ) )
                 	__ADDW1MN _OSDchr,48
000788 81e0      	LD   R30,Z
000789 940e 0f33 	CALL SUBOPT_0x9
                 ; 0000 04C1     timer_pointer-=6;
00078b 91e0 26d2 	LDS  R30,_timer_pointer
00078d e0f0      	LDI  R31,0
00078e 9736      	SBIW R30,6
00078f 93e0 26d2 	STS  _timer_pointer,R30
                 ; 0000 04C2     if(a==0) ontime_min();
000791 940e 0fe0 	CALL SUBOPT_0x20
000793 940e 13ac 	CALL __CPD10
000795 f409      	BRNE _0x6B
000796 df85      	RCALL _ontime_min
                 ; 0000 04C3     }
                 _0x6B:
                 _0x6A:
                 ; 0000 04C4 }
                 _0x20A0006:
000797 9624      	ADIW R28,4
000798 9508      	RET
                 ;/////////////////////////////////////////////////////////////////////////////////////////////////////////////////////////////////////////////////////////////
                 ;bit ontime_flag=0;
                 ;int date_pointer;
                 ;void commands(void) //명령어 키조합
                 ; 0000 04C9 {
                 _commands:
                 ; 0000 04CA     if(command[1]=='A' && command[2]=='T' && command[3]==13)          // 연결확인
                +
000799 91a0 2691+LDS R26 , _command + ( 1 )
                 	__GETB2MN _command,1
00079b 34a1      	CPI  R26,LOW(0x41)
00079c f441      	BRNE _0x6D
                +
00079d 91a0 2692+LDS R26 , _command + ( 2 )
                 	__GETB2MN _command,2
00079f 35a4      	CPI  R26,LOW(0x54)
0007a0 f421      	BRNE _0x6D
                +
0007a1 91a0 2693+LDS R26 , _command + ( 3 )
                 	__GETB2MN _command,3
0007a3 30ad      	CPI  R26,LOW(0xD)
0007a4 f009      	BREQ _0x6E
                 _0x6D:
0007a5 c009      	RJMP _0x6C
                 _0x6E:
                 ; 0000 04CB     {
                 ; 0000 04CC         delay_us(100);
                +
0007a6 e483     +LDI R24 , LOW ( 67 )
                +__DELAY_USB_LOOP :
0007a7 958a     +DEC R24
0007a8 f7f1     +BRNE __DELAY_USB_LOOP
                 	__DELAY_USB 67
                 ; 0000 04CD         puts("OSD CONNECT : OK\r");
                +
0007a9 ede0     +LDI R30 , LOW ( _0x6F + ( 0 ) )
0007aa e2f4     +LDI R31 , HIGH ( _0x6F + ( 0 ) )
                 	__POINTW1MN _0x6F,0
0007ab 940e 0f3d 	CALL SUBOPT_0xB
                 ; 0000 04CE         com_reset();
0007ad dd9f      	RCALL _com_reset
                 ; 0000 04CF     }
                 ; 0000 04D0     else if(command[1]=='C' && command[2]=='K' && command[3]==13) // CHECK용
0007ae c1e7      	RJMP _0x70
                 _0x6C:
                +
0007af 91a0 2691+LDS R26 , _command + ( 1 )
                 	__GETB2MN _command,1
0007b1 34a3      	CPI  R26,LOW(0x43)
0007b2 f441      	BRNE _0x72
                +
0007b3 91a0 2692+LDS R26 , _command + ( 2 )
                 	__GETB2MN _command,2
0007b5 34ab      	CPI  R26,LOW(0x4B)
0007b6 f421      	BRNE _0x72
                +
0007b7 91a0 2693+LDS R26 , _command + ( 3 )
                 	__GETB2MN _command,3
0007b9 30ad      	CPI  R26,LOW(0xD)
0007ba f009      	BREQ _0x73
                 _0x72:
0007bb c003      	RJMP _0x71
                 _0x73:
                 ; 0000 04D1     {
                 ; 0000 04D2         check();
0007bc dda3      	RCALL _check
                 ; 0000 04D3         com_reset();
0007bd dd8f      	RCALL _com_reset
                 ; 0000 04D4     }
                 ; 0000 04D5     else if(command[1]=='C' && command[2]=='R' && command[3]==13) // 화면 CLEAR
0007be c1d7      	RJMP _0x74
                 _0x71:
                +
0007bf 91a0 2691+LDS R26 , _command + ( 1 )
                 	__GETB2MN _command,1
0007c1 34a3      	CPI  R26,LOW(0x43)
0007c2 f441      	BRNE _0x76
                +
0007c3 91a0 2692+LDS R26 , _command + ( 2 )
                 	__GETB2MN _command,2
0007c5 35a2      	CPI  R26,LOW(0x52)
0007c6 f421      	BRNE _0x76
                +
0007c7 91a0 2693+LDS R26 , _command + ( 3 )
                 	__GETB2MN _command,3
0007c9 30ad      	CPI  R26,LOW(0xD)
0007ca f009      	BREQ _0x77
                 _0x76:
0007cb c003      	RJMP _0x75
                 _0x77:
                 ; 0000 04D6     {
                 ; 0000 04D7         clear();
0007cc ddd0      	RCALL _clear
                 ; 0000 04D8         com_reset();
0007cd dd7f      	RCALL _com_reset
                 ; 0000 04D9     }
                 ; 0000 04DA     else if(command[1]=='O' && command[2]=='N' && command[3]==13)     // OSD ON
0007ce c1c7      	RJMP _0x78
                 _0x75:
                +
0007cf 91a0 2691+LDS R26 , _command + ( 1 )
                 	__GETB2MN _command,1
0007d1 34af      	CPI  R26,LOW(0x4F)
0007d2 f441      	BRNE _0x7A
                +
0007d3 91a0 2692+LDS R26 , _command + ( 2 )
                 	__GETB2MN _command,2
0007d5 34ae      	CPI  R26,LOW(0x4E)
0007d6 f421      	BRNE _0x7A
                +
0007d7 91a0 2693+LDS R26 , _command + ( 3 )
                 	__GETB2MN _command,3
0007d9 30ad      	CPI  R26,LOW(0xD)
0007da f009      	BREQ _0x7B
                 _0x7A:
0007db c003      	RJMP _0x79
                 _0x7B:
                 ; 0000 04DB     {
                 ; 0000 04DC         on();
0007dc ddc8      	RCALL _on
                 ; 0000 04DD         com_reset();
0007dd dd6f      	RCALL _com_reset
                 ; 0000 04DE     }
                 ; 0000 04DF    else if(command[1]=='O' && command[2]=='F' && command[3]==13)   // OSD OFF
0007de c1b7      	RJMP _0x7C
                 _0x79:
                +
0007df 91a0 2691+LDS R26 , _command + ( 1 )
                 	__GETB2MN _command,1
0007e1 34af      	CPI  R26,LOW(0x4F)
0007e2 f441      	BRNE _0x7E
                +
0007e3 91a0 2692+LDS R26 , _command + ( 2 )
                 	__GETB2MN _command,2
0007e5 34a6      	CPI  R26,LOW(0x46)
0007e6 f421      	BRNE _0x7E
                +
0007e7 91a0 2693+LDS R26 , _command + ( 3 )
                 	__GETB2MN _command,3
0007e9 30ad      	CPI  R26,LOW(0xD)
0007ea f009      	BREQ _0x7F
                 _0x7E:
0007eb c003      	RJMP _0x7D
                 _0x7F:
                 ; 0000 04E0     {
                 ; 0000 04E1         off();
0007ec ddbd      	RCALL _off
                 ; 0000 04E2         com_reset();
0007ed dd5f      	RCALL _com_reset
                 ; 0000 04E3     }
                 ; 0000 04E4     else if(command[1]=='C' && command[2]=='L' && command[3]!= NULL && command[4]!= NULL && command[5] == 13)  //열
0007ee c1a7      	RJMP _0x80
                 _0x7D:
                +
0007ef 91a0 2691+LDS R26 , _command + ( 1 )
                 	__GETB2MN _command,1
0007f1 34a3      	CPI  R26,LOW(0x43)
0007f2 f481      	BRNE _0x82
                +
0007f3 91a0 2692+LDS R26 , _command + ( 2 )
                 	__GETB2MN _command,2
0007f5 34ac      	CPI  R26,LOW(0x4C)
0007f6 f461      	BRNE _0x82
                +
0007f7 91a0 2693+LDS R26 , _command + ( 3 )
                 	__GETB2MN _command,3
0007f9 30a0      	CPI  R26,LOW(0x0)
0007fa f041      	BREQ _0x82
                +
0007fb 91a0 2694+LDS R26 , _command + ( 4 )
                 	__GETB2MN _command,4
0007fd 30a0      	CPI  R26,LOW(0x0)
0007fe f021      	BREQ _0x82
                +
0007ff 91a0 2695+LDS R26 , _command + ( 5 )
                 	__GETB2MN _command,5
000801 30ad      	CPI  R26,LOW(0xD)
000802 f009      	BREQ _0x83
                 _0x82:
000803 c006      	RJMP _0x81
                 _0x83:
                 ; 0000 04E5     {
                 ; 0000 04E6         col(command[3]);
                +
000804 91e0 2693+LDS R30 , _command + ( 3 )
                 	__GETB1MN _command,3
000806 93ea      	ST   -Y,R30
000807 ddaf      	RCALL _col
                 ; 0000 04E7         com_reset();
000808 dd44      	RCALL _com_reset
                 ; 0000 04E8     }
                 ; 0000 04E9     else if(command[1]=='R' && command[2]=='W'  && command[3]!= NULL && command[4] != NULL && command[5]==13) // 행
000809 c18c      	RJMP _0x84
                 _0x81:
                +
00080a 91a0 2691+LDS R26 , _command + ( 1 )
                 	__GETB2MN _command,1
00080c 35a2      	CPI  R26,LOW(0x52)
00080d f481      	BRNE _0x86
                +
00080e 91a0 2692+LDS R26 , _command + ( 2 )
                 	__GETB2MN _command,2
000810 35a7      	CPI  R26,LOW(0x57)
000811 f461      	BRNE _0x86
                +
000812 91a0 2693+LDS R26 , _command + ( 3 )
                 	__GETB2MN _command,3
000814 30a0      	CPI  R26,LOW(0x0)
000815 f041      	BREQ _0x86
                +
000816 91a0 2694+LDS R26 , _command + ( 4 )
                 	__GETB2MN _command,4
000818 30a0      	CPI  R26,LOW(0x0)
000819 f021      	BREQ _0x86
                +
00081a 91a0 2695+LDS R26 , _command + ( 5 )
                 	__GETB2MN _command,5
00081c 30ad      	CPI  R26,LOW(0xD)
00081d f009      	BREQ _0x87
                 _0x86:
00081e c006      	RJMP _0x85
                 _0x87:
                 ; 0000 04EA     {
                 ; 0000 04EB         row(command[3]);
                +
00081f 91e0 2693+LDS R30 , _command + ( 3 )
                 	__GETB1MN _command,3
000821 93ea      	ST   -Y,R30
000822 ddc8      	RCALL _row
                 ; 0000 04EC         com_reset();
000823 dd29      	RCALL _com_reset
                 ; 0000 04ED     }
                 ; 0000 04EE     else if(command[1]=='T' && command[2]=='R' && command[3]==13)
000824 c171      	RJMP _0x88
                 _0x85:
                +
000825 91a0 2691+LDS R26 , _command + ( 1 )
                 	__GETB2MN _command,1
000827 35a4      	CPI  R26,LOW(0x54)
000828 f441      	BRNE _0x8A
                +
000829 91a0 2692+LDS R26 , _command + ( 2 )
                 	__GETB2MN _command,2
00082b 35a2      	CPI  R26,LOW(0x52)
00082c f421      	BRNE _0x8A
                +
00082d 91a0 2693+LDS R26 , _command + ( 3 )
                 	__GETB2MN _command,3
00082f 30ad      	CPI  R26,LOW(0xD)
000830 f009      	BREQ _0x8B
                 _0x8A:
000831 c014      	RJMP _0x89
                 _0x8B:
                 ; 0000 04EF     {
                 ; 0000 04F0         ontime_flag = ~ontime_flag;
000832 9b04      	SBIS 0x0,4
000833 c002      	RJMP _0x8C
000834 9804      	CBI  0x0,4
000835 c001      	RJMP _0x8D
                 _0x8C:
000836 9a04      	SBI  0x0,4
                 _0x8D:
                 ; 0000 04F1         if(ontime_flag==1)
000837 9b04      	SBIS 0x0,4
000838 c006      	RJMP _0x8E
                 ; 0000 04F2         {
                 ; 0000 04F3             //t_pointer=pointer;
                 ; 0000 04F4             timer_pointer=19;
000839 e1e3      	LDI  R30,LOW(19)
00083a 93e0 26d2 	STS  _timer_pointer,R30
                 ; 0000 04F5             puts("ONTIMER ON\r");
                +
00083c eee2     +LDI R30 , LOW ( _0x6F + ( 18 ) )
00083d e2f4     +LDI R31 , HIGH ( _0x6F + ( 18 ) )
                 	__POINTW1MN _0x6F,18
00083e c002      	RJMP _0xCE
                 ; 0000 04F6         }
                 ; 0000 04F7         else puts("ONTIMER OFF\r");
                 _0x8E:
                +
00083f eeee     +LDI R30 , LOW ( _0x6F + ( 30 ) )
000840 e2f4     +LDI R31 , HIGH ( _0x6F + ( 30 ) )
                 	__POINTW1MN _0x6F,30
                 _0xCE:
000841 93fa      	ST   -Y,R31
000842 93ea      	ST   -Y,R30
000843 d22d      	RCALL _puts
                 ; 0000 04F8         com_reset();
000844 dd08      	RCALL _com_reset
                 ; 0000 04F9     }
                 ; 0000 04FA     else if(command[1]=='T' && command[2]=='S' && command[3]!= NULL && command[4] != NULL && command[5]!= NULL && command[6] != NULL && command[7]==13)
000845 c150      	RJMP _0x90
                 _0x89:
                +
000846 91a0 2691+LDS R26 , _command + ( 1 )
                 	__GETB2MN _command,1
000848 35a4      	CPI  R26,LOW(0x54)
000849 f4c1      	BRNE _0x92
                +
00084a 91a0 2692+LDS R26 , _command + ( 2 )
                 	__GETB2MN _command,2
00084c 35a3      	CPI  R26,LOW(0x53)
00084d f4a1      	BRNE _0x92
                +
00084e 91a0 2693+LDS R26 , _command + ( 3 )
                 	__GETB2MN _command,3
000850 30a0      	CPI  R26,LOW(0x0)
000851 f081      	BREQ _0x92
                +
000852 91a0 2694+LDS R26 , _command + ( 4 )
                 	__GETB2MN _command,4
000854 30a0      	CPI  R26,LOW(0x0)
000855 f061      	BREQ _0x92
                +
000856 91a0 2695+LDS R26 , _command + ( 5 )
                 	__GETB2MN _command,5
000858 30a0      	CPI  R26,LOW(0x0)
000859 f041      	BREQ _0x92
                +
00085a 91a0 2696+LDS R26 , _command + ( 6 )
                 	__GETB2MN _command,6
00085c 30a0      	CPI  R26,LOW(0x0)
00085d f021      	BREQ _0x92
                +
00085e 91a0 2697+LDS R26 , _command + ( 7 )
                 	__GETB2MN _command,7
000860 30ad      	CPI  R26,LOW(0xD)
000861 f009      	BREQ _0x93
                 _0x92:
000862 c020      	RJMP _0x91
                 _0x93:
                 ; 0000 04FB     {
                 ; 0000 04FC         timer_pointer=19;
000863 e1e3      	LDI  R30,LOW(19)
000864 93e0 26d2 	STS  _timer_pointer,R30
                 ; 0000 04FD         ontime_flag = 1;
000866 9a04      	SBI  0x0,4
                 ; 0000 04FE         hour=(command[3]-'0')*10+(command[4]-'0'-1);
000867 940e 0fe3 	CALL SUBOPT_0x21
000869 9731      	SBIW R30,1
00086a 0fea      	ADD  R30,R26
00086b 93e0 26d3 	STS  _hour,R30
                 ; 0000 04FF         minu=(command[5]-'0')*10+(command[6]-'0'-1);
                +
00086d 91e0 2695+LDS R30 , _command + ( 5 )
                 	__GETB1MN _command,5
00086f 940e 0fec 	CALL SUBOPT_0x22
000871 e0aa      	LDI  R26,LOW(10)
000872 e0b0      	LDI  R27,HIGH(10)
000873 940e 12ef 	CALL __MULW12
000875 01df      	MOVW R26,R30
                +
000876 91e0 2696+LDS R30 , _command + ( 6 )
                 	__GETB1MN _command,6
000878 940e 0fec 	CALL SUBOPT_0x22
00087a 940e 0fef 	CALL SUBOPT_0x23
                 ; 0000 0500         ontime_min();
                 ; 0000 0501         ontime_hour();
00087c de6f      	RCALL _ontime_hour
                 ; 0000 0502         puts("ONTIMER SET\r");
                +
00087d efeb     +LDI R30 , LOW ( _0x6F + ( 43 ) )
00087e e2f4     +LDI R31 , HIGH ( _0x6F + ( 43 ) )
                 	__POINTW1MN _0x6F,43
00087f 940e 0f3d 	CALL SUBOPT_0xB
                 ; 0000 0503         com_reset();
000881 dccb      	RCALL _com_reset
                 ; 0000 0504     }
                 ; 0000 0505     else if(command[1]=='T' && command[2]=='H' && command[3]!= NULL && command[4] != NULL && command[5]==13)
000882 c113      	RJMP _0x96
                 _0x91:
                +
000883 91a0 2691+LDS R26 , _command + ( 1 )
                 	__GETB2MN _command,1
000885 35a4      	CPI  R26,LOW(0x54)
000886 f481      	BRNE _0x98
                +
000887 91a0 2692+LDS R26 , _command + ( 2 )
                 	__GETB2MN _command,2
000889 34a8      	CPI  R26,LOW(0x48)
00088a f461      	BRNE _0x98
                +
00088b 91a0 2693+LDS R26 , _command + ( 3 )
                 	__GETB2MN _command,3
00088d 30a0      	CPI  R26,LOW(0x0)
00088e f041      	BREQ _0x98
                +
00088f 91a0 2694+LDS R26 , _command + ( 4 )
                 	__GETB2MN _command,4
000891 30a0      	CPI  R26,LOW(0x0)
000892 f021      	BREQ _0x98
                +
000893 91a0 2695+LDS R26 , _command + ( 5 )
                 	__GETB2MN _command,5
000895 30ad      	CPI  R26,LOW(0xD)
000896 f009      	BREQ _0x99
                 _0x98:
000897 c009      	RJMP _0x97
                 _0x99:
                 ; 0000 0506     {
                 ; 0000 0507         hour=(command[3]-'0')*10+(command[4]-'0'-1);
000898 940e 0fe3 	CALL SUBOPT_0x21
00089a 9731      	SBIW R30,1
00089b 0fea      	ADD  R30,R26
00089c 93e0 26d3 	STS  _hour,R30
                 ; 0000 0508         ontime_hour();
00089e de4d      	RCALL _ontime_hour
                 ; 0000 0509         com_reset();
00089f dcad      	RCALL _com_reset
                 ; 0000 050A     }
                 ; 0000 050B     else if(command[1]=='T' && command[2]=='M' && command[3]!= NULL && command[4] != NULL && command[5]==13)
0008a0 c0f5      	RJMP _0x9A
                 _0x97:
                +
0008a1 91a0 2691+LDS R26 , _command + ( 1 )
                 	__GETB2MN _command,1
0008a3 35a4      	CPI  R26,LOW(0x54)
0008a4 f481      	BRNE _0x9C
                +
0008a5 91a0 2692+LDS R26 , _command + ( 2 )
                 	__GETB2MN _command,2
0008a7 34ad      	CPI  R26,LOW(0x4D)
0008a8 f461      	BRNE _0x9C
                +
0008a9 91a0 2693+LDS R26 , _command + ( 3 )
                 	__GETB2MN _command,3
0008ab 30a0      	CPI  R26,LOW(0x0)
0008ac f041      	BREQ _0x9C
                +
0008ad 91a0 2694+LDS R26 , _command + ( 4 )
                 	__GETB2MN _command,4
0008af 30a0      	CPI  R26,LOW(0x0)
0008b0 f021      	BREQ _0x9C
                +
0008b1 91a0 2695+LDS R26 , _command + ( 5 )
                 	__GETB2MN _command,5
0008b3 30ad      	CPI  R26,LOW(0xD)
0008b4 f009      	BREQ _0x9D
                 _0x9C:
0008b5 c00f      	RJMP _0x9B
                 _0x9D:
                 ; 0000 050C     {
                 ; 0000 050D         minu=(command[3]-'0')*10+(command[4]-'0'-1);
                +
0008b6 91e0 2693+LDS R30 , _command + ( 3 )
                 	__GETB1MN _command,3
0008b8 940e 0fec 	CALL SUBOPT_0x22
0008ba e0aa      	LDI  R26,LOW(10)
0008bb e0b0      	LDI  R27,HIGH(10)
0008bc 940e 12ef 	CALL __MULW12
0008be 01df      	MOVW R26,R30
0008bf 940e 0f38 	CALL SUBOPT_0xA
0008c1 940e 0fef 	CALL SUBOPT_0x23
                 ; 0000 050E         ontime_min();
                 ; 0000 050F         com_reset();
0008c3 dc89      	RCALL _com_reset
                 ; 0000 0510     }
                 ; 0000 0511     else if(command[1]=='D' && command[2]=='T'&& command[3] != NULL && command[4]!= NULL && command[5] != NULL && command[6]!= NULL && command[7] != NULL && command[8]!= NULL && command[9] == 13   )
0008c4 c0d1      	RJMP _0x9E
                 _0x9B:
                +
0008c5 91a0 2691+LDS R26 , _command + ( 1 )
                 	__GETB2MN _command,1
0008c7 34a4      	CPI  R26,LOW(0x44)
0008c8 f501      	BRNE _0xA0
                +
0008c9 91a0 2692+LDS R26 , _command + ( 2 )
                 	__GETB2MN _command,2
0008cb 35a4      	CPI  R26,LOW(0x54)
0008cc f4e1      	BRNE _0xA0
                +
0008cd 91a0 2693+LDS R26 , _command + ( 3 )
                 	__GETB2MN _command,3
0008cf 30a0      	CPI  R26,LOW(0x0)
0008d0 f0c1      	BREQ _0xA0
                +
0008d1 91a0 2694+LDS R26 , _command + ( 4 )
                 	__GETB2MN _command,4
0008d3 30a0      	CPI  R26,LOW(0x0)
0008d4 f0a1      	BREQ _0xA0
                +
0008d5 91a0 2695+LDS R26 , _command + ( 5 )
                 	__GETB2MN _command,5
0008d7 30a0      	CPI  R26,LOW(0x0)
0008d8 f081      	BREQ _0xA0
                +
0008d9 91a0 2696+LDS R26 , _command + ( 6 )
                 	__GETB2MN _command,6
0008db 30a0      	CPI  R26,LOW(0x0)
0008dc f061      	BREQ _0xA0
                +
0008dd 91a0 2697+LDS R26 , _command + ( 7 )
                 	__GETB2MN _command,7
0008df 30a0      	CPI  R26,LOW(0x0)
0008e0 f041      	BREQ _0xA0
                +
0008e1 91a0 2698+LDS R26 , _command + ( 8 )
                 	__GETB2MN _command,8
0008e3 30a0      	CPI  R26,LOW(0x0)
0008e4 f021      	BREQ _0xA0
                +
0008e5 91a0 2699+LDS R26 , _command + ( 9 )
                 	__GETB2MN _command,9
0008e7 30ad      	CPI  R26,LOW(0xD)
0008e8 f009      	BREQ _0xA1
                 _0xA0:
0008e9 c04a      	RJMP _0x9F
                 _0xA1:
                 ; 0000 0512     {
                 ; 0000 0513         date_pointer=26;
0008ea e1ea      	LDI  R30,LOW(26)
0008eb e0f0      	LDI  R31,HIGH(26)
0008ec 940e 0ff5 	CALL SUBOPT_0x24
                 ; 0000 0514         MAX7456_Write(11, date_pointer, OSDchr[command[8]]);
0008ee 940e 0ffa 	CALL SUBOPT_0x25
0008f0 93fa      	ST   -Y,R31
0008f1 93ea      	ST   -Y,R30
                +
0008f2 91e0 2698+LDS R30 , _command + ( 8 )
                 	__GETB1MN _command,8
0008f4 940e 0f8e 	CALL SUBOPT_0x15
                 ; 0000 0515         date_pointer--;
0008f6 940e 0fff 	CALL SUBOPT_0x26
                 ; 0000 0516         MAX7456_Write(11, date_pointer, OSDchr[command[7]]);
0008f8 940e 1002 	CALL SUBOPT_0x27
                +
0008fa 91e0 2697+LDS R30 , _command + ( 7 )
                 	__GETB1MN _command,7
0008fc 940e 0f8e 	CALL SUBOPT_0x15
                 ; 0000 0517         date_pointer--;
0008fe 940e 0fff 	CALL SUBOPT_0x26
                 ; 0000 0518         MAX7456_Write(11, date_pointer, OSDchr['/']);
000900 940e 1002 	CALL SUBOPT_0x27
                +
000902 91e0 258e+LDS R30 , _OSDchr + ( 47 )
                 	__GETB1MN _OSDchr,47
000904 940e 0f33 	CALL SUBOPT_0x9
                 ; 0000 0519         date_pointer--;
000906 940e 0fff 	CALL SUBOPT_0x26
                 ; 0000 051A         MAX7456_Write(11, date_pointer, OSDchr[command[6]]);
000908 940e 1002 	CALL SUBOPT_0x27
                +
00090a 91e0 2696+LDS R30 , _command + ( 6 )
                 	__GETB1MN _command,6
00090c 940e 0f8e 	CALL SUBOPT_0x15
                 ; 0000 051B         date_pointer--;
00090e 940e 0fff 	CALL SUBOPT_0x26
                 ; 0000 051C         MAX7456_Write(11, date_pointer, OSDchr[command[5]]);
000910 940e 1002 	CALL SUBOPT_0x27
                +
000912 91e0 2695+LDS R30 , _command + ( 5 )
                 	__GETB1MN _command,5
000914 940e 0f8e 	CALL SUBOPT_0x15
                 ; 0000 051D         date_pointer--;
000916 940e 0fff 	CALL SUBOPT_0x26
                 ; 0000 051E         MAX7456_Write(11, date_pointer, OSDchr['/']);
000918 940e 1002 	CALL SUBOPT_0x27
                +
00091a 91e0 258e+LDS R30 , _OSDchr + ( 47 )
                 	__GETB1MN _OSDchr,47
00091c 940e 0f33 	CALL SUBOPT_0x9
                 ; 0000 051F         date_pointer--;
00091e 940e 0fff 	CALL SUBOPT_0x26
                 ; 0000 0520         MAX7456_Write(11, date_pointer, OSDchr[command[4]]);
000920 940e 1002 	CALL SUBOPT_0x27
                +
000922 91e0 2694+LDS R30 , _command + ( 4 )
                 	__GETB1MN _command,4
000924 940e 0f8e 	CALL SUBOPT_0x15
                 ; 0000 0521         date_pointer--;
000926 940e 0fff 	CALL SUBOPT_0x26
                 ; 0000 0522         MAX7456_Write(11, date_pointer, OSDchr[command[3]]);
000928 940e 1002 	CALL SUBOPT_0x27
                +
00092a 91e0 2693+LDS R30 , _command + ( 3 )
                 	__GETB1MN _command,3
00092c 940e 0f8e 	CALL SUBOPT_0x15
                 ; 0000 0523         puts("DATE SET\r");
                +
00092e e0e8     +LDI R30 , LOW ( _0x6F + ( 56 ) )
00092f e2f5     +LDI R31 , HIGH ( _0x6F + ( 56 ) )
                 	__POINTW1MN _0x6F,56
000930 940e 0f3d 	CALL SUBOPT_0xB
                 ; 0000 0524         com_reset();
000932 dc1a      	RCALL _com_reset
                 ; 0000 0525     }
                 ; 0000 0526     else if(command[1]=='T' && command[2]==':' && command[3]!=NULL)
000933 c062      	RJMP _0xA2
                 _0x9F:
                +
000934 91a0 2691+LDS R26 , _command + ( 1 )
                 	__GETB2MN _command,1
000936 35a4      	CPI  R26,LOW(0x54)
000937 f441      	BRNE _0xA4
                +
000938 91a0 2692+LDS R26 , _command + ( 2 )
                 	__GETB2MN _command,2
00093a 33aa      	CPI  R26,LOW(0x3A)
00093b f421      	BRNE _0xA4
                +
00093c 91a0 2693+LDS R26 , _command + ( 3 )
                 	__GETB2MN _command,3
00093e 30a0      	CPI  R26,LOW(0x0)
00093f f409      	BRNE _0xA5
                 _0xA4:
000940 c005      	RJMP _0xA3
                 _0xA5:
                 ; 0000 0527     {
                 ; 0000 0528         title_pointer=2;
000941 e0e2      	LDI  R30,LOW(2)
000942 e0f0      	LDI  R31,HIGH(2)
000943 013f      	MOVW R6,R30
                 ; 0000 0529         title();
000944 dd09      	RCALL _title
                 ; 0000 052A     }
                 ; 0000 052B     else if(command[1]=='T' && command[2]=='E' && command[3]==13)
000945 c050      	RJMP _0xA6
                 _0xA3:
                +
000946 91a0 2691+LDS R26 , _command + ( 1 )
                 	__GETB2MN _command,1
000948 35a4      	CPI  R26,LOW(0x54)
000949 f441      	BRNE _0xA8
                +
00094a 91a0 2692+LDS R26 , _command + ( 2 )
                 	__GETB2MN _command,2
00094c 34a5      	CPI  R26,LOW(0x45)
00094d f421      	BRNE _0xA8
                +
00094e 91a0 2693+LDS R26 , _command + ( 3 )
                 	__GETB2MN _command,3
000950 30ad      	CPI  R26,LOW(0xD)
000951 f009      	BREQ _0xA9
                 _0xA8:
000952 c008      	RJMP _0xA7
                 _0xA9:
                 ; 0000 052C     {
                 ; 0000 052D         RTC_sec=0;
000953 940e 0fcd 	CALL SUBOPT_0x1E
                 ; 0000 052E         puts("SECOND : 0");
                +
000955 e1e2     +LDI R30 , LOW ( _0x6F + ( 66 ) )
000956 e2f5     +LDI R31 , HIGH ( _0x6F + ( 66 ) )
                 	__POINTW1MN _0x6F,66
000957 940e 0f3d 	CALL SUBOPT_0xB
                 ; 0000 052F         com_reset();
000959 dbf3      	RCALL _com_reset
                 ; 0000 0530     }
                 ; 0000 0531     else if(command[1]=='E' && command[2]=='N' && command[3]==13)
00095a c03b      	RJMP _0xAA
                 _0xA7:
                +
00095b 91a0 2691+LDS R26 , _command + ( 1 )
                 	__GETB2MN _command,1
00095d 34a5      	CPI  R26,LOW(0x45)
00095e f441      	BRNE _0xAC
                +
00095f 91a0 2692+LDS R26 , _command + ( 2 )
                 	__GETB2MN _command,2
000961 34ae      	CPI  R26,LOW(0x4E)
000962 f421      	BRNE _0xAC
                +
000963 91a0 2693+LDS R26 , _command + ( 3 )
                 	__GETB2MN _command,3
000965 30ad      	CPI  R26,LOW(0xD)
000966 f009      	BREQ _0xAD
                 _0xAC:
000967 c015      	RJMP _0xAB
                 _0xAD:
                 ; 0000 0532     {
                 ; 0000 0533         flag_com=~flag_com;
000968 9b00      	SBIS 0x0,0
000969 c002      	RJMP _0xAE
00096a 9800      	CBI  0x0,0
00096b c001      	RJMP _0xAF
                 _0xAE:
00096c 9a00      	SBI  0x0,0
                 _0xAF:
                 ; 0000 0534         if(flag_com==1)
00096d 9b00      	SBIS 0x0,0
00096e c007      	RJMP _0xB0
                 ; 0000 0535         {
                 ; 0000 0536             //e_pointer=pointer;
                 ; 0000 0537             encorder_pointer=2;
00096f e0e2      	LDI  R30,LOW(2)
000970 e0f0      	LDI  R31,HIGH(2)
000971 940e 0f93 	CALL SUBOPT_0x16
                 ; 0000 0538             puts("ENCODER ON\r");
                +
000973 e1ed     +LDI R30 , LOW ( _0x6F + ( 77 ) )
000974 e2f5     +LDI R31 , HIGH ( _0x6F + ( 77 ) )
                 	__POINTW1MN _0x6F,77
000975 c002      	RJMP _0xCF
                 ; 0000 0539         }
                 ; 0000 053A         else puts("ENCODER OFF\r");
                 _0xB0:
                +
000976 e2e9     +LDI R30 , LOW ( _0x6F + ( 89 ) )
000977 e2f5     +LDI R31 , HIGH ( _0x6F + ( 89 ) )
                 	__POINTW1MN _0x6F,89
                 _0xCF:
000978 93fa      	ST   -Y,R31
000979 93ea      	ST   -Y,R30
00097a d0f6      	RCALL _puts
                 ; 0000 053B         com_reset();
00097b dbd1      	RCALL _com_reset
                 ; 0000 053C     }
                 ; 0000 053D     else if(command[1]=='E' && command[2]=='R'&& command[3]==13)
00097c c019      	RJMP _0xB2
                 _0xAB:
                +
00097d 91a0 2691+LDS R26 , _command + ( 1 )
                 	__GETB2MN _command,1
00097f 34a5      	CPI  R26,LOW(0x45)
000980 f441      	BRNE _0xB4
                +
000981 91a0 2692+LDS R26 , _command + ( 2 )
                 	__GETB2MN _command,2
000983 35a2      	CPI  R26,LOW(0x52)
000984 f421      	BRNE _0xB4
                +
000985 91a0 2693+LDS R26 , _command + ( 3 )
                 	__GETB2MN _command,3
000987 30ad      	CPI  R26,LOW(0xD)
000988 f009      	BREQ _0xB5
                 _0xB4:
000989 c007      	RJMP _0xB3
                 _0xB5:
                 ; 0000 053E     {
                 ; 0000 053F         //init_LS7366();
                 ; 0000 0540         reset_LS7366();
00098a dd0f      	RCALL _reset_LS7366
                 ; 0000 0541         puts("ENCODER VALUE RESET!!\r");
                +
00098b e3e6     +LDI R30 , LOW ( _0x6F + ( 102 ) )
00098c e2f5     +LDI R31 , HIGH ( _0x6F + ( 102 ) )
                 	__POINTW1MN _0x6F,102
00098d 940e 0f3d 	CALL SUBOPT_0xB
                 ; 0000 0542         com_reset();
00098f dbbd      	RCALL _com_reset
                 ; 0000 0543     }
                 ; 0000 0544     else if(command[1] != NULL) //&& command[2] != NULL)   //문자입력
000990 c005      	RJMP _0xB6
                 _0xB3:
                +
000991 91e0 2691+LDS R30 , _command + ( 1 )
                 	__GETB1MN _command,1
000993 30e0      	CPI  R30,0
000994 f009      	BREQ _0xB7
                 ; 0000 0545     {
                 ; 0000 0546          chat();
000995 dc85      	RCALL _chat
                 ; 0000 0547     }
                 ; 0000 0548 }
                 _0xB7:
                 _0xB6:
                 _0xB2:
                 _0xAA:
                 _0xA6:
                 _0xA2:
                 _0x9E:
                 _0x9A:
                 _0x96:
                 _0x90:
                 _0x88:
                 _0x84:
                 _0x80:
                 _0x7C:
                 _0x78:
                 _0x74:
                 _0x70:
000996 9508      	RET
                 
                 	.DSEG
                 _0x6F:
0024d0           	.BYTE 0x7D
                 ;///////////////////////////////////////////////////////************************************************************************************************//////////////////
                 ;void main(void)
                 ; 0000 054B {
                 
                 	.CSEG
                 _main:
                 ; 0000 054C // Declare your local variables here
                 ; 0000 054D unsigned char n, i, ttemp=0;
                 ; 0000 054E 
                 ; 0000 054F // Interrupt system initialization
                 ; 0000 0550 // Optimize for speed
                 ; 0000 0551 #pragma optsize-
                 ; 0000 0552 // Make sure the interrupts are disabled
                 ; 0000 0553 #asm("cli")
                 ;	n -> R17
                 ;	i -> R16
                 ;	ttemp -> R19
000997 e030      	LDI  R19,0
000998 94f8      	cli
                 ; 0000 0554 // Low level interrupt: On
                 ; 0000 0555 // Round-robin scheduling for low level interrupt: Off
                 ; 0000 0556 // Medium level interrupt: Off
                 ; 0000 0557 // High level interrupt: Off
                 ; 0000 0558 // The interrupt vectors will be placed at the start of the Application FLASH section
                 ; 0000 0559 n=(PMIC.CTRL & (~(PMIC_RREN_bm | PMIC_IVSEL_bm | PMIC_HILVLEN_bm | PMIC_MEDLVLEN_bm | PMIC_LOLVLEN_bm))) |
                 ; 0000 055A 	PMIC_LOLVLEN_bm;
000999 91e0 00a2 	LDS  R30,162
00099b 73e8      	ANDI R30,LOW(0x38)
00099c 60e1      	ORI  R30,1
00099d 2f1e      	MOV  R17,R30
                 ; 0000 055B CCP=CCP_IOREG_gc;
00099e ede8      	LDI  R30,LOW(216)
00099f bfe4      	OUT  0x34,R30
                 ; 0000 055C PMIC.CTRL=n;
0009a0 9310 00a2 	STS  162,R17
                 ; 0000 055D // Set the default priority for round-robin scheduling
                 ; 0000 055E PMIC.INTPRI=0x00;
0009a2 e0e0      	LDI  R30,LOW(0)
0009a3 93e0 00a1 	STS  161,R30
                 ; 0000 055F // Restore optimization for size if needed
                 ; 0000 0560 #pragma optsize_default
                 ; 0000 0561 
                 ; 0000 0562 // Watchdog timer initialization
                 ; 0000 0563 watchdog_init();
0009a5 940e 0272 	CALL _watchdog_init
                 ; 0000 0564 
                 ; 0000 0565 // System clocks initialization
                 ; 0000 0566 system_clocks_init();
0009a7 940e 0244 	CALL _system_clocks_init
                 ; 0000 0567 
                 ; 0000 0568 // Event system initialization
                 ; 0000 0569 event_system_init();
0009a9 940e 028a 	CALL _event_system_init
                 ; 0000 056A 
                 ; 0000 056B // Ports initialization
                 ; 0000 056C ports_init();
0009ab 940e 02bd 	CALL _ports_init
                 ; 0000 056D 
                 ; 0000 056E // Virtual Ports initialization
                 ; 0000 056F vports_init();
0009ad 940e 035f 	CALL _vports_init
                 ; 0000 0570 
                 ; 0000 0571 // Timer/Counter TCC0 initialization
                 ; 0000 0572 tcc0_init();
0009af 940e 036e 	CALL _tcc0_init
                 ; 0000 0573 
                 ; 0000 0574 // RTC initialization
                 ; 0000 0575 rtcxm_init();
0009b1 da3b      	RCALL _rtcxm_init
                 ; 0000 0576 
                 ; 0000 0577 // USARTD0 initialization
                 ; 0000 0578 usartd0_init();
0009b2 da9b      	RCALL _usartd0_init
                 ; 0000 0579 
                 ; 0000 057A // USARTD1 is disabled
                 ; 0000 057B usart_disable(&USARTD1);
0009b3 ebe0      	LDI  R30,LOW(2480)
0009b4 e0f9      	LDI  R31,HIGH(2480)
0009b5 93fa      	ST   -Y,R31
0009b6 93ea      	ST   -Y,R30
0009b7 da8b      	RCALL _usart_disable
                 ; 0000 057C 
                 ; 0000 057D // USARTE0 is disabled
                 ; 0000 057E usart_disable(&USARTE0);
0009b8 eae0      	LDI  R30,LOW(2720)
0009b9 e0fa      	LDI  R31,HIGH(2720)
0009ba 93fa      	ST   -Y,R31
0009bb 93ea      	ST   -Y,R30
0009bc da86      	RCALL _usart_disable
                 ; 0000 057F 
                 ; 0000 0580 // SPIC initialization
                 ; 0000 0581 spic_init();
0009bd daf7      	RCALL _spic_init
                 ; 0000 0582 
                 ; 0000 0583 // SPID initialization
                 ; 0000 0584 spid_init();
0009be db09      	RCALL _spid_init
                 ; 0000 0585 
                 ; 0000 0586 // ENCORDER initialization
                 ; 0000 0587 init_LS7366();
0009bf dcca      	RCALL _init_LS7366
                 ; 0000 0588 
                 ; 0000 0589 puts("OSD CONNECT : OK\r");
                +
0009c0 e4ed     +LDI R30 , LOW ( _0xB8 + ( 0 ) )
0009c1 e2f5     +LDI R31 , HIGH ( _0xB8 + ( 0 ) )
                 	__POINTW1MN _0xB8,0
0009c2 940e 0f3d 	CALL SUBOPT_0xB
                 ; 0000 058A MAX7456_init();
0009c4 db33      	RCALL _MAX7456_init
                 ; 0000 058B // Globaly enable interrupts
                 ; 0000 058C #asm("sei")
0009c5 9478      	sei
                 ; 0000 058D 
                 ; 0000 058E while (1)
                 _0xB9:
                 ; 0000 058F       {
                 ; 0000 0590       // Place your code here
                 ; 0000 0591         if(command_flag==1)
0009c6 9b03      	SBIS 0x0,3
0009c7 c005      	RJMP _0xBC
                 ; 0000 0592          {
                 ; 0000 0593              if(command_size>1)commands();
0009c8 91a0 26af 	LDS  R26,_command_size
0009ca 30a2      	CPI  R26,LOW(0x2)
0009cb f008      	BRLO _0xBD
0009cc ddcc      	RCALL _commands
                 ; 0000 0594          }
                 _0xBD:
                 ; 0000 0595         if(ontime_flag==1 && RTC_flag==1) ontime_sec();
                 _0xBC:
0009cd 9b04      	SBIS 0x0,4
0009ce c002      	RJMP _0xBF
0009cf 9901      	SBIC 0x0,1
0009d0 c001      	RJMP _0xC0
                 _0xBF:
0009d1 c001      	RJMP _0xBE
                 _0xC0:
0009d2 dd86      	RCALL _ontime_sec
                 ; 0000 0596         if(flag_com==1 && (ten_ms%10)==0)
                 _0xBE:
0009d3 9b00      	SBIS 0x0,0
0009d4 c007      	RJMP _0xC2
0009d5 01d4      	MOVW R26,R8
0009d6 e0ea      	LDI  R30,LOW(10)
0009d7 e0f0      	LDI  R31,HIGH(10)
0009d8 940e 1350 	CALL __MODW21
0009da 9730      	SBIW R30,0
0009db f009      	BREQ _0xC3
                 _0xC2:
0009dc c092      	RJMP _0xC1
                 _0xC3:
                 ; 0000 0597          {
                 ; 0000 0598             LS7366_SS_H_L                     // Initialize SS
0009dd e0e0      	LDI  R30,LOW(0)
0009de 93e0 0664 	STS  1636,R30
                 ; 0000 0599             spid_master_tx_rx(SELECT_OTR | LOAD_REG);   // Transfer CNTR to OTR in "parallel"
0009e0 eee8      	LDI  R30,LOW(232)
0009e1 93ea      	ST   -Y,R30
0009e2 daee      	RCALL _spid_master_tx_rx
                 ; 0000 059A             LS7366_SS_L_H
0009e3 940e 0f75 	CALL SUBOPT_0x12
                 ; 0000 059B             LS7366_SS_H_L                           //
                 ; 0000 059C             spid_master_tx_rx(SELECT_OTR | RD_REG);     // Read 4 Bytes OTR Register
0009e5 e6e8      	LDI  R30,LOW(104)
0009e6 940e 0f7c 	CALL SUBOPT_0x13
                 ; 0000 059D             a = spid_master_tx_rx(0x00);            // B31 - B24  MSB
0009e8 2ebe      	MOV  R11,R30
                 ; 0000 059E             b = spid_master_tx_rx(0x00);            // B23 - B16
0009e9 940e 1006 	CALL SUBOPT_0x28
0009eb 2eae      	MOV  R10,R30
                 ; 0000 059F             c = spid_master_tx_rx(0x00);            // B15 - B08
0009ec 940e 1006 	CALL SUBOPT_0x28
0009ee 2ede      	MOV  R13,R30
                 ; 0000 05A0             d = spid_master_tx_rx(0x00);            // B07 - B00  LSB
0009ef 940e 1006 	CALL SUBOPT_0x28
0009f1 2ece      	MOV  R12,R30
                 ; 0000 05A1             LS7366_SS_L_H
0009f2 e1e0      	LDI  R30,LOW(16)
0009f3 93e0 0664 	STS  1636,R30
                 ; 0000 05A2 
                 ; 0000 05A3             sum = ( ((0x000000ffL & a) << 24) | ((0x000000ffL & b) << 16) | ((0x000000ffL & c) << 8) | (0x0000ffffL & d) );
0009f5 2deb      	MOV  R30,R11
0009f6 940e 100a 	CALL SUBOPT_0x29
0009f8 01df      	MOVW R26,R30
0009f9 01cb      	MOVW R24,R22
0009fa e1e8      	LDI  R30,LOW(24)
0009fb 940e 12c5 	CALL __LSLD12
0009fd 01df      	MOVW R26,R30
0009fe 01cb      	MOVW R24,R22
0009ff 2dea      	MOV  R30,R10
000a00 940e 100a 	CALL SUBOPT_0x29
000a02 940e 12d1 	CALL __LSLD16
000a04 940e 12b4 	CALL __ORD12
000a06 937f      	PUSH R23
000a07 936f      	PUSH R22
000a08 93ff      	PUSH R31
000a09 93ef      	PUSH R30
000a0a 2ded      	MOV  R30,R13
000a0b 940e 100a 	CALL SUBOPT_0x29
000a0d 01df      	MOVW R26,R30
000a0e 01cb      	MOVW R24,R22
000a0f e0e8      	LDI  R30,LOW(8)
000a10 940e 12c5 	CALL __LSLD12
000a12 91af      	POP  R26
000a13 91bf      	POP  R27
000a14 918f      	POP  R24
000a15 919f      	POP  R25
000a16 940e 12b4 	CALL __ORD12
000a18 01df      	MOVW R26,R30
000a19 01cb      	MOVW R24,R22
000a1a 2dec      	MOV  R30,R12
000a1b 27ff      	CLR  R31
000a1c 2766      	CLR  R22
000a1d 2777      	CLR  R23
                +
000a1e 7fef     +ANDI R30 , LOW ( 0xFFFF )
000a1f 7fff     +ANDI R31 , HIGH ( 0xFFFF )
000a20 7060     +ANDI R22 , BYTE3 ( 0xFFFF )
000a21 7070     +ANDI R23 , BYTE4 ( 0xFFFF )
                 	__ANDD1N 0xFFFF
000a22 940e 12b4 	CALL __ORD12
000a24 93e0 267d 	STS  _sum,R30
000a26 93f0 267e 	STS  _sum+1,R31
000a28 9360 267f 	STS  _sum+2,R22
000a2a 9370 2680 	STS  _sum+3,R23
                 ; 0000 05A4             sprintf(ch,"%4.3fM",sum*0.314/500);     // 1바퀴에 0.314m
000a2c e5ef      	LDI  R30,LOW(_ch)
000a2d e2f6      	LDI  R31,HIGH(_ch)
000a2e 93fa      	ST   -Y,R31
000a2f 93ea      	ST   -Y,R30
                +
000a30 e0ee     +LDI R30 , LOW ( 2 * _0x0 + ( 280 ) )
000a31 e0f3     +LDI R31 , HIGH ( 2 * _0x0 + ( 280 ) )
                 	__POINTW1FN _0x0,280
000a32 93fa      	ST   -Y,R31
000a33 93ea      	ST   -Y,R30
000a34 91e0 267d 	LDS  R30,_sum
000a36 91f0 267e 	LDS  R31,_sum+1
000a38 9160 267f 	LDS  R22,_sum+2
000a3a 9170 2680 	LDS  R23,_sum+3
000a3c 940e 1173 	CALL __CDF1
                +
000a3e e9ac     +LDI R26 , LOW ( 0x3EA0C49C )
000a3f ecb4     +LDI R27 , HIGH ( 0x3EA0C49C )
000a40 ea80     +LDI R24 , BYTE3 ( 0x3EA0C49C )
000a41 e39e     +LDI R25 , BYTE4 ( 0x3EA0C49C )
                 	__GETD2N 0x3EA0C49C
000a42 940e 11fd 	CALL __MULF12
000a44 01df      	MOVW R26,R30
000a45 01cb      	MOVW R24,R22
                +
000a46 e0e0     +LDI R30 , LOW ( 0x43FA0000 )
000a47 e0f0     +LDI R31 , HIGH ( 0x43FA0000 )
000a48 ef6a     +LDI R22 , BYTE3 ( 0x43FA0000 )
000a49 e473     +LDI R23 , BYTE4 ( 0x43FA0000 )
                 	__GETD1N 0x43FA0000
000a4a 940e 124b 	CALL __DIVF21
000a4c 940e 139a 	CALL __PUTPARD1
000a4e e084      	LDI  R24,4
000a4f d360      	RCALL _sprintf
000a50 9628      	ADIW R28,8
                 ; 0000 05A5             delay_us(500);
                +
000a51 ef8a     +LDI R24 , LOW ( 250 )
000a52 e090     +LDI R25 , HIGH ( 250 )
                +__DELAY_USW_LOOP :
000a53 9701     +SBIW R24 , 1
000a54 f7f1     +BRNE __DELAY_USW_LOOP
                 	__DELAY_USW 250
                 ; 0000 05A6             for(i=0;i<30;i++)
000a55 e000      	LDI  R16,LOW(0)
                 _0xC5:
000a56 310e      	CPI  R16,30
000a57 f478      	BRSH _0xC6
                 ; 0000 05A7             {
                 ; 0000 05A8                 if(ch[i]==temp[i]) ttemp++;
000a58 940e 1012 	CALL SUBOPT_0x2A
000a5a 010f      	MOVW R0,R30
000a5b 5ae1      	SUBI R30,LOW(-_ch)
000a5c 4df9      	SBCI R31,HIGH(-_ch)
000a5d 81a0      	LD   R26,Z
000a5e 01f0      	MOVW R30,R0
000a5f 54ec      	SUBI R30,LOW(-_temp)
000a60 4df9      	SBCI R31,HIGH(-_temp)
000a61 81e0      	LD   R30,Z
000a62 17ea      	CP   R30,R26
000a63 f409      	BRNE _0xC7
000a64 5f3f      	SUBI R19,-1
                 ; 0000 05A9             }
                 _0xC7:
000a65 5f0f      	SUBI R16,-1
000a66 cfef      	RJMP _0xC5
                 _0xC6:
                 ; 0000 05AA             if(ttemp != 30)   putstringc1(ch);       // 10ms간격 사이에 숫자변화가 있으면 화면에 출력
000a67 313e      	CPI  R19,30
000a68 f029      	BREQ _0xC8
000a69 e5ef      	LDI  R30,LOW(_ch)
000a6a e2f6      	LDI  R31,HIGH(_ch)
000a6b 93fa      	ST   -Y,R31
000a6c 93ea      	ST   -Y,R30
000a6d dc36      	RCALL _putstringc1
                 ; 0000 05AB             ttemp=0;
                 _0xC8:
000a6e e030      	LDI  R19,LOW(0)
                 ; 0000 05AC 
                 ; 0000 05AD          }
                 ; 0000 05AE       }
                 _0xC1:
000a6f cf56      	RJMP _0xB9
                 ; 0000 05AF }
                 _0xC9:
000a70 cfff      	RJMP _0xC9
                 
                 	.DSEG
                 _0xB8:
00254d           	.BYTE 0x12
                 
                 	.CSEG
                 _puts:
000a71 931a      	ST   -Y,R17
                 _0x2000003:
000a72 81a9      	LDD  R26,Y+1
000a73 81ba      	LDD  R27,Y+1+1
000a74 91ed      	LD   R30,X+
000a75 83a9      	STD  Y+1,R26
000a76 83ba      	STD  Y+1+1,R27
000a77 2f1e      	MOV  R17,R30
000a78 30e0      	CPI  R30,0
000a79 f019      	BREQ _0x2000005
000a7a 931a      	ST   -Y,R17
000a7b da31      	RCALL _putchar
000a7c cff5      	RJMP _0x2000003
                 _0x2000005:
000a7d e0ea      	LDI  R30,LOW(10)
000a7e 93ea      	ST   -Y,R30
000a7f da2d      	RCALL _putchar
000a80 8118      	LDD  R17,Y+0
000a81 9623      	ADIW R28,3
000a82 9508      	RET
                 _put_buff_G100:
000a83 931a      	ST   -Y,R17
000a84 930a      	ST   -Y,R16
000a85 81aa      	LDD  R26,Y+2
000a86 81bb      	LDD  R27,Y+2+1
000a87 9612      	ADIW R26,2
000a88 940e 137c 	CALL __GETW1P
000a8a 9730      	SBIW R30,0
000a8b f129      	BREQ _0x2000010
000a8c 81aa      	LDD  R26,Y+2
000a8d 81bb      	LDD  R27,Y+2+1
000a8e 9614      	ADIW R26,4
000a8f 940e 137c 	CALL __GETW1P
000a91 018f      	MOVW R16,R30
000a92 9730      	SBIW R30,0
000a93 f061      	BREQ _0x2000012
                +
000a94 3002     +CPI R16 , LOW ( 2 )
000a95 e0e0     +LDI R30 , HIGH ( 2 )
000a96 071e     +CPC R17 , R30
                 	__CPWRN 16,17,2
000a97 f0c0      	BRLO _0x2000013
000a98 01f8      	MOVW R30,R16
000a99 9731      	SBIW R30,1
000a9a 018f      	MOVW R16,R30
                +
000a9b 81aa     +LDD R26 , Y + 2
000a9c 81bb     +LDD R27 , Y + 2 + 1
000a9d 9614     +ADIW R26 , 4
000a9e 93ed     +ST X + , R30
000a9f 93fc     +ST X , R31
                 	__PUTW1SNS 2,4
                 _0x2000012:
000aa0 81aa      	LDD  R26,Y+2
000aa1 81bb      	LDD  R27,Y+2+1
000aa2 9612      	ADIW R26,2
000aa3 940e 1015 	CALL SUBOPT_0x2B
000aa5 9731      	SBIW R30,1
000aa6 81ac      	LDD  R26,Y+4
000aa7 83a0      	STD  Z+0,R26
000aa8 81aa      	LDD  R26,Y+2
000aa9 81bb      	LDD  R27,Y+2+1
000aaa 940e 137c 	CALL __GETW1P
000aac 23ff      	TST  R31
000aad f012      	BRMI _0x2000014
000aae 940e 1015 	CALL SUBOPT_0x2B
                 _0x2000014:
                 _0x2000013:
000ab0 c006      	RJMP _0x2000015
                 _0x2000010:
000ab1 81aa      	LDD  R26,Y+2
000ab2 81bb      	LDD  R27,Y+2+1
000ab3 efef      	LDI  R30,LOW(65535)
000ab4 efff      	LDI  R31,HIGH(65535)
000ab5 93ed      	ST   X+,R30
000ab6 93fc      	ST   X,R31
                 _0x2000015:
000ab7 8119      	LDD  R17,Y+1
000ab8 8108      	LDD  R16,Y+0
000ab9 9625      	ADIW R28,5
000aba 9508      	RET
                 __ftoe_G100:
000abb 9724      	SBIW R28,4
000abc e0e0      	LDI  R30,LOW(0)
000abd 83e8      	ST   Y,R30
000abe 83e9      	STD  Y+1,R30
000abf e8e0      	LDI  R30,LOW(128)
000ac0 83ea      	STD  Y+2,R30
000ac1 e3ef      	LDI  R30,LOW(63)
000ac2 83eb      	STD  Y+3,R30
000ac3 940e 13b2 	CALL __SAVELOCR4
000ac5 85ee      	LDD  R30,Y+14
000ac6 85ff      	LDD  R31,Y+14+1
000ac7 3fef      	CPI  R30,LOW(0xFFFF)
000ac8 efaf      	LDI  R26,HIGH(0xFFFF)
000ac9 07fa      	CPC  R31,R26
000aca f449      	BRNE _0x2000019
000acb 85e8      	LDD  R30,Y+8
000acc 85f9      	LDD  R31,Y+8+1
000acd 93fa      	ST   -Y,R31
000ace 93ea      	ST   -Y,R30
                +
000acf e1e6     +LDI R30 , LOW ( 2 * _0x2000000 + ( 0 ) )
000ad0 e0f3     +LDI R31 , HIGH ( 2 * _0x2000000 + ( 0 ) )
                 	__POINTW1FN _0x2000000,0
000ad1 940e 101b 	CALL SUBOPT_0x2C
000ad3 c0ba      	RJMP _0x20A0005
                 _0x2000019:
000ad4 3fef      	CPI  R30,LOW(0x7FFF)
000ad5 e7af      	LDI  R26,HIGH(0x7FFF)
000ad6 07fa      	CPC  R31,R26
000ad7 f449      	BRNE _0x2000018
000ad8 85e8      	LDD  R30,Y+8
000ad9 85f9      	LDD  R31,Y+8+1
000ada 93fa      	ST   -Y,R31
000adb 93ea      	ST   -Y,R30
                +
000adc e1e7     +LDI R30 , LOW ( 2 * _0x2000000 + ( 1 ) )
000add e0f3     +LDI R31 , HIGH ( 2 * _0x2000000 + ( 1 ) )
                 	__POINTW1FN _0x2000000,1
000ade 940e 101b 	CALL SUBOPT_0x2C
000ae0 c0ad      	RJMP _0x20A0005
                 _0x2000018:
000ae1 85ab      	LDD  R26,Y+11
000ae2 30a7      	CPI  R26,LOW(0x7)
000ae3 f010      	BRLO _0x200001B
000ae4 e0e6      	LDI  R30,LOW(6)
000ae5 87eb      	STD  Y+11,R30
                 _0x200001B:
000ae6 851b      	LDD  R17,Y+11
                 _0x200001C:
000ae7 2fe1      	MOV  R30,R17
000ae8 5011      	SUBI R17,1
000ae9 30e0      	CPI  R30,0
000aea f019      	BREQ _0x200001E
000aeb 940e 101f 	CALL SUBOPT_0x2D
000aed cff9      	RJMP _0x200001C
                 _0x200001E:
                +
000aee 85ec     +LDD R30 , Y + 12
000aef 85fd     +LDD R31 , Y + 12 + 1
000af0 856e     +LDD R22 , Y + 12 + 2
000af1 857f     +LDD R23 , Y + 12 + 3
                 	__GETD1S 12
000af2 940e 13ac 	CALL __CPD10
000af4 f421      	BRNE _0x200001F
000af5 e030      	LDI  R19,LOW(0)
000af6 940e 101f 	CALL SUBOPT_0x2D
000af8 c02e      	RJMP _0x2000020
                 _0x200001F:
000af9 853b      	LDD  R19,Y+11
000afa 940e 102e 	CALL SUBOPT_0x2E
000afc f009      	BREQ PC+2
000afd f410      	BRCC PC+3
000afe 940c 0b0b 	JMP  _0x2000021
000b00 940e 101f 	CALL SUBOPT_0x2D
                 _0x2000022:
000b02 940e 102e 	CALL SUBOPT_0x2E
000b04 f028      	BRLO _0x2000024
000b05 940e 1039 	CALL SUBOPT_0x2F
000b07 940e 103e 	CALL SUBOPT_0x30
000b09 cff8      	RJMP _0x2000022
                 _0x2000024:
000b0a c00d      	RJMP _0x2000025
                 _0x2000021:
                 _0x2000026:
000b0b 940e 102e 	CALL SUBOPT_0x2E
000b0d f440      	BRSH _0x2000028
000b0e 940e 1039 	CALL SUBOPT_0x2F
000b10 940e 104a 	CALL SUBOPT_0x31
000b12 940e 1051 	CALL SUBOPT_0x32
000b14 5031      	SUBI R19,LOW(1)
000b15 cff5      	RJMP _0x2000026
                 _0x2000028:
000b16 940e 101f 	CALL SUBOPT_0x2D
                 _0x2000025:
                +
000b18 85ec     +LDD R30 , Y + 12
000b19 85fd     +LDD R31 , Y + 12 + 1
000b1a 856e     +LDD R22 , Y + 12 + 2
000b1b 857f     +LDD R23 , Y + 12 + 3
                 	__GETD1S 12
000b1c 940e 1056 	CALL SUBOPT_0x33
000b1e 940e 1051 	CALL SUBOPT_0x32
000b20 940e 102e 	CALL SUBOPT_0x2E
000b22 f020      	BRLO _0x2000029
000b23 940e 1039 	CALL SUBOPT_0x2F
000b25 940e 103e 	CALL SUBOPT_0x30
                 _0x2000029:
                 _0x2000020:
000b27 e010      	LDI  R17,LOW(0)
                 _0x200002A:
000b28 85eb      	LDD  R30,Y+11
000b29 17e1      	CP   R30,R17
000b2a f1b8      	BRLO _0x200002C
                +
000b2b 81ac     +LDD R26 , Y + 4
000b2c 81bd     +LDD R27 , Y + 4 + 1
000b2d 818e     +LDD R24 , Y + 4 + 2
000b2e 819f     +LDD R25 , Y + 4 + 3
                 	__GETD2S 4
000b2f 940e 105d 	CALL SUBOPT_0x34
000b31 940e 1056 	CALL SUBOPT_0x33
000b33 940e 139a 	CALL __PUTPARD1
000b35 940e 0e35 	CALL _floor
                +
000b37 83ec     +STD Y + 4 , R30
000b38 83fd     +STD Y + 4 + 1 , R31
000b39 836e     +STD Y + 4 + 2 , R22
000b3a 837f     +STD Y + 4 + 3 , R23
                 	__PUTD1S 4
000b3b 940e 1039 	CALL SUBOPT_0x2F
000b3d 940e 124b 	CALL __DIVF21
000b3f 940e 113a 	CALL __CFD1U
000b41 2f0e      	MOV  R16,R30
000b42 940e 1064 	CALL SUBOPT_0x35
000b44 2fe0      	MOV  R30,R16
000b45 5de0      	SUBI R30,-LOW(48)
000b46 93ec      	ST   X,R30
000b47 2fe0      	MOV  R30,R16
000b48 27ff      	CLR  R31
000b49 2766      	CLR  R22
000b4a 2777      	CLR  R23
000b4b 940e 1173 	CALL __CDF1
                +
000b4d 81ac     +LDD R26 , Y + 4
000b4e 81bd     +LDD R27 , Y + 4 + 1
000b4f 818e     +LDD R24 , Y + 4 + 2
000b50 819f     +LDD R25 , Y + 4 + 3
                 	__GETD2S 4
000b51 940e 11fd 	CALL __MULF12
000b53 940e 1039 	CALL SUBOPT_0x2F
000b55 940e 106b 	CALL SUBOPT_0x36
000b57 940e 1051 	CALL SUBOPT_0x32
000b59 2fe1      	MOV  R30,R17
000b5a 5f1f      	SUBI R17,-1
000b5b 30e0      	CPI  R30,0
000b5c f659      	BRNE _0x200002A
000b5d 940e 1064 	CALL SUBOPT_0x35
000b5f e2ee      	LDI  R30,LOW(46)
000b60 93ec      	ST   X,R30
000b61 cfc6      	RJMP _0x200002A
                 _0x200002C:
000b62 940e 1070 	CALL SUBOPT_0x37
000b64 9731      	SBIW R30,1
000b65 85aa      	LDD  R26,Y+10
000b66 83a0      	STD  Z+0,R26
000b67 3030      	CPI  R19,0
000b68 f42c      	BRGE _0x200002E
000b69 9531      	NEG  R19
000b6a 85a8      	LDD  R26,Y+8
000b6b 85b9      	LDD  R27,Y+8+1
000b6c e2ed      	LDI  R30,LOW(45)
000b6d c003      	RJMP _0x200010E
                 _0x200002E:
000b6e 85a8      	LDD  R26,Y+8
000b6f 85b9      	LDD  R27,Y+8+1
000b70 e2eb      	LDI  R30,LOW(43)
                 _0x200010E:
000b71 93ec      	ST   X,R30
000b72 940e 1070 	CALL SUBOPT_0x37
000b74 940e 1070 	CALL SUBOPT_0x37
000b76 9731      	SBIW R30,1
000b77 01bf      	MOVW R22,R30
000b78 2fa3      	MOV  R26,R19
000b79 e0ea      	LDI  R30,LOW(10)
000b7a 940e 1302 	CALL __DIVB21
000b7c 5de0      	SUBI R30,-LOW(48)
000b7d 01db      	MOVW R26,R22
000b7e 93ec      	ST   X,R30
000b7f 940e 1070 	CALL SUBOPT_0x37
000b81 9731      	SBIW R30,1
000b82 01bf      	MOVW R22,R30
000b83 2fa3      	MOV  R26,R19
000b84 e0ea      	LDI  R30,LOW(10)
000b85 940e 1344 	CALL __MODB21
000b87 5de0      	SUBI R30,-LOW(48)
000b88 01db      	MOVW R26,R22
000b89 93ec      	ST   X,R30
000b8a 85a8      	LDD  R26,Y+8
000b8b 85b9      	LDD  R27,Y+8+1
000b8c e0e0      	LDI  R30,LOW(0)
000b8d 93ec      	ST   X,R30
                 _0x20A0005:
000b8e 940e 13b9 	CALL __LOADLOCR4
000b90 9660      	ADIW R28,16
000b91 9508      	RET
                 __print_G100:
000b92 97ef      	SBIW R28,63
000b93 9761      	SBIW R28,17
000b94 940e 13b0 	CALL __SAVELOCR6
000b96 e010      	LDI  R17,0
                +
000b97 01fe     +MOVW R30 , R28
000b98 5ae8     +SUBI R30 , LOW ( - 88 )
000b99 4fff     +SBCI R31 , HIGH ( - 88 )
000b9a 9001     +LD R0 , Z +
000b9b 81f0     +LD R31 , Z
000b9c 2de0     +MOV R30 , R0
                 	__GETW1SX 88
000b9d 87e8      	STD  Y+8,R30
000b9e 87f9      	STD  Y+8+1,R31
                +
000b9f 01fe     +MOVW R30 , R28
000ba0 5aea     +SUBI R30 , LOW ( - 86 )
000ba1 4fff     +SBCI R31 , HIGH ( - 86 )
000ba2 9001     +LD R0 , Z +
000ba3 81f0     +LD R31 , Z
000ba4 2de0     +MOV R30 , R0
                 	__GETW1SX 86
000ba5 83ee      	STD  Y+6,R30
000ba6 83ff      	STD  Y+6+1,R31
000ba7 81ae      	LDD  R26,Y+6
000ba8 81bf      	LDD  R27,Y+6+1
000ba9 e0e0      	LDI  R30,LOW(0)
000baa e0f0      	LDI  R31,HIGH(0)
000bab 93ed      	ST   X+,R30
000bac 93fc      	ST   X,R31
                 _0x2000030:
000bad 01de      	MOVW R26,R28
000bae 5aa4      	SUBI R26,LOW(-(92))
000baf 4fbf      	SBCI R27,HIGH(-(92))
000bb0 940e 1015 	CALL SUBOPT_0x2B
000bb2 9731      	SBIW R30,1
000bb3 91e4      	LPM  R30,Z
000bb4 2f2e      	MOV  R18,R30
000bb5 30e0      	CPI  R30,0
000bb6 f411      	BRNE PC+3
000bb7 940c 0da7 	JMP _0x2000032
000bb9 2fe1      	MOV  R30,R17
000bba 30e0      	CPI  R30,0
000bbb f439      	BRNE _0x2000036
000bbc 3225      	CPI  R18,37
000bbd f411      	BRNE _0x2000037
000bbe e011      	LDI  R17,LOW(1)
000bbf c002      	RJMP _0x2000038
                 _0x2000037:
000bc0 940e 1076 	CALL SUBOPT_0x38
                 _0x2000038:
000bc2 c1e3      	RJMP _0x2000035
                 _0x2000036:
000bc3 30e1      	CPI  R30,LOW(0x1)
000bc4 f4c1      	BRNE _0x2000039
000bc5 3225      	CPI  R18,37
000bc6 f419      	BRNE _0x200003A
000bc7 940e 1076 	CALL SUBOPT_0x38
000bc9 c1db      	RJMP _0x200010F
                 _0x200003A:
000bca e012      	LDI  R17,LOW(2)
000bcb e0e0      	LDI  R30,LOW(0)
000bcc 8bed      	STD  Y+21,R30
000bcd e000      	LDI  R16,LOW(0)
000bce 322d      	CPI  R18,45
000bcf f411      	BRNE _0x200003B
000bd0 e001      	LDI  R16,LOW(1)
000bd1 c1d4      	RJMP _0x2000035
                 _0x200003B:
000bd2 322b      	CPI  R18,43
000bd3 f419      	BRNE _0x200003C
000bd4 e2eb      	LDI  R30,LOW(43)
000bd5 8bed      	STD  Y+21,R30
000bd6 c1cf      	RJMP _0x2000035
                 _0x200003C:
000bd7 3220      	CPI  R18,32
000bd8 f419      	BRNE _0x200003D
000bd9 e2e0      	LDI  R30,LOW(32)
000bda 8bed      	STD  Y+21,R30
000bdb c1ca      	RJMP _0x2000035
                 _0x200003D:
000bdc c002      	RJMP _0x200003E
                 _0x2000039:
000bdd 30e2      	CPI  R30,LOW(0x2)
000bde f439      	BRNE _0x200003F
                 _0x200003E:
000bdf e050      	LDI  R21,LOW(0)
000be0 e013      	LDI  R17,LOW(3)
000be1 3320      	CPI  R18,48
000be2 f411      	BRNE _0x2000040
000be3 6800      	ORI  R16,LOW(128)
000be4 c1c1      	RJMP _0x2000035
                 _0x2000040:
000be5 c002      	RJMP _0x2000041
                 _0x200003F:
000be6 30e3      	CPI  R30,LOW(0x3)
000be7 f491      	BRNE _0x2000042
                 _0x2000041:
000be8 3320      	CPI  R18,48
000be9 f010      	BRLO _0x2000044
000bea 332a      	CPI  R18,58
000beb f008      	BRLO _0x2000045
                 _0x2000044:
000bec c007      	RJMP _0x2000043
                 _0x2000045:
000bed e0aa      	LDI  R26,LOW(10)
000bee 9f5a      	MUL  R21,R26
000bef 2d50      	MOV  R21,R0
000bf0 2fe2      	MOV  R30,R18
000bf1 53e0      	SUBI R30,LOW(48)
000bf2 0f5e      	ADD  R21,R30
000bf3 c1b2      	RJMP _0x2000035
                 _0x2000043:
000bf4 e040      	LDI  R20,LOW(0)
000bf5 322e      	CPI  R18,46
000bf6 f411      	BRNE _0x2000046
000bf7 e014      	LDI  R17,LOW(4)
000bf8 c1ad      	RJMP _0x2000035
                 _0x2000046:
000bf9 c00f      	RJMP _0x2000047
                 _0x2000042:
000bfa 30e4      	CPI  R30,LOW(0x4)
000bfb f499      	BRNE _0x2000049
000bfc 3320      	CPI  R18,48
000bfd f010      	BRLO _0x200004B
000bfe 332a      	CPI  R18,58
000bff f008      	BRLO _0x200004C
                 _0x200004B:
000c00 c008      	RJMP _0x200004A
                 _0x200004C:
000c01 6200      	ORI  R16,LOW(32)
000c02 e0aa      	LDI  R26,LOW(10)
000c03 9f4a      	MUL  R20,R26
000c04 2d40      	MOV  R20,R0
000c05 2fe2      	MOV  R30,R18
000c06 53e0      	SUBI R30,LOW(48)
000c07 0f4e      	ADD  R20,R30
000c08 c19d      	RJMP _0x2000035
                 _0x200004A:
                 _0x2000047:
000c09 362c      	CPI  R18,108
000c0a f419      	BRNE _0x200004D
000c0b 6002      	ORI  R16,LOW(2)
000c0c e015      	LDI  R17,LOW(5)
000c0d c198      	RJMP _0x2000035
                 _0x200004D:
000c0e c004      	RJMP _0x200004E
                 _0x2000049:
000c0f 30e5      	CPI  R30,LOW(0x5)
000c10 f011      	BREQ PC+3
000c11 940c 0da6 	JMP _0x2000035
                 _0x200004E:
000c13 2fe2      	MOV  R30,R18
000c14 36e3      	CPI  R30,LOW(0x63)
000c15 f459      	BRNE _0x2000053
000c16 940e 107f 	CALL SUBOPT_0x39
000c18 940e 1086 	CALL SUBOPT_0x3A
000c1a 940e 107f 	CALL SUBOPT_0x39
000c1c 81a4      	LDD  R26,Z+4
000c1d 93aa      	ST   -Y,R26
000c1e 940e 108d 	CALL SUBOPT_0x3B
000c20 c184      	RJMP _0x2000054
                 _0x2000053:
000c21 34e5      	CPI  R30,LOW(0x45)
000c22 f011      	BREQ _0x2000057
000c23 36e5      	CPI  R30,LOW(0x65)
000c24 f409      	BRNE _0x2000058
                 _0x2000057:
000c25 c004      	RJMP _0x2000059
                 _0x2000058:
000c26 36e6      	CPI  R30,LOW(0x66)
000c27 f011      	BREQ PC+3
000c28 940c 0c74 	JMP _0x200005A
                 _0x2000059:
000c2a 01fe      	MOVW R30,R28
000c2b 9676      	ADIW R30,22
000c2c 87ee      	STD  Y+14,R30
000c2d 87ff      	STD  Y+14+1,R31
000c2e 940e 1095 	CALL SUBOPT_0x3C
000c30 940e 1380 	CALL __GETD1P
000c32 940e 109c 	CALL SUBOPT_0x3D
000c34 940e 10a1 	CALL SUBOPT_0x3E
000c36 85ad      	LDD  R26,Y+13
000c37 23aa      	TST  R26
000c38 f022      	BRMI _0x200005B
000c39 89ad      	LDD  R26,Y+21
000c3a 32ab      	CPI  R26,LOW(0x2B)
000c3b f049      	BREQ _0x200005D
000c3c c017      	RJMP _0x200005E
                 _0x200005B:
000c3d 940e 10a3 	CALL SUBOPT_0x3F
000c3f 940e 1107 	CALL __ANEGF1
000c41 940e 109c 	CALL SUBOPT_0x3D
000c43 e2ed      	LDI  R30,LOW(45)
000c44 8bed      	STD  Y+21,R30
                 _0x200005D:
000c45 ff07      	SBRS R16,7
000c46 c005      	RJMP _0x200005F
000c47 89ed      	LDD  R30,Y+21
000c48 93ea      	ST   -Y,R30
000c49 940e 108d 	CALL SUBOPT_0x3B
000c4b c008      	RJMP _0x2000060
                 _0x200005F:
000c4c 85ee      	LDD  R30,Y+14
000c4d 85ff      	LDD  R31,Y+14+1
000c4e 9631      	ADIW R30,1
000c4f 87ee      	STD  Y+14,R30
000c50 87ff      	STD  Y+14+1,R31
000c51 9731      	SBIW R30,1
000c52 89ad      	LDD  R26,Y+21
000c53 83a0      	STD  Z+0,R26
                 _0x2000060:
                 _0x200005E:
000c54 ff05      	SBRS R16,5
000c55 e046      	LDI  R20,LOW(6)
000c56 3626      	CPI  R18,102
000c57 f461      	BRNE _0x2000062
000c58 940e 10a3 	CALL SUBOPT_0x3F
000c5a 940e 139a 	CALL __PUTPARD1
000c5c 934a      	ST   -Y,R20
000c5d 89eb      	LDD  R30,Y+19
000c5e 89fc      	LDD  R31,Y+19+1
000c5f 93fa      	ST   -Y,R31
000c60 93ea      	ST   -Y,R30
000c61 940e 0e4c 	CALL _ftoa
000c63 c00b      	RJMP _0x2000063
                 _0x2000062:
000c64 940e 10a3 	CALL SUBOPT_0x3F
000c66 940e 139a 	CALL __PUTPARD1
000c68 934a      	ST   -Y,R20
000c69 932a      	ST   -Y,R18
000c6a 89ec      	LDD  R30,Y+20
000c6b 89fd      	LDD  R31,Y+20+1
000c6c 93fa      	ST   -Y,R31
000c6d 93ea      	ST   -Y,R30
000c6e de4c      	RCALL __ftoe_G100
                 _0x2000063:
000c6f 01fe      	MOVW R30,R28
000c70 9676      	ADIW R30,22
000c71 940e 10a8 	CALL SUBOPT_0x40
000c73 c01e      	RJMP _0x2000064
                 _0x200005A:
000c74 37e3      	CPI  R30,LOW(0x73)
000c75 f439      	BRNE _0x2000066
000c76 940e 10a1 	CALL SUBOPT_0x3E
000c78 940e 10b0 	CALL SUBOPT_0x41
000c7a 940e 10a8 	CALL SUBOPT_0x40
000c7c c00e      	RJMP _0x2000067
                 _0x2000066:
000c7d 37e0      	CPI  R30,LOW(0x70)
000c7e f4c1      	BRNE _0x2000069
000c7f 940e 10a1 	CALL SUBOPT_0x3E
000c81 940e 10b0 	CALL SUBOPT_0x41
000c83 87ee      	STD  Y+14,R30
000c84 87ff      	STD  Y+14+1,R31
000c85 93fa      	ST   -Y,R31
000c86 93ea      	ST   -Y,R30
000c87 940e 0dfb 	CALL _strlenf
000c89 2f1e      	MOV  R17,R30
000c8a 6008      	ORI  R16,LOW(8)
                 _0x2000067:
000c8b 770f      	ANDI R16,LOW(127)
000c8c 3040      	CPI  R20,0
000c8d f011      	BREQ _0x200006B
000c8e 1741      	CP   R20,R17
000c8f f008      	BRLO _0x200006C
                 _0x200006B:
000c90 c001      	RJMP _0x200006A
                 _0x200006C:
000c91 2f14      	MOV  R17,R20
                 _0x200006A:
                 _0x2000064:
000c92 e040      	LDI  R20,LOW(0)
000c93 e0e0      	LDI  R30,LOW(0)
000c94 8bec      	STD  Y+20,R30
000c95 e030      	LDI  R19,LOW(0)
000c96 c06e      	RJMP _0x200006D
                 _0x2000069:
000c97 36e4      	CPI  R30,LOW(0x64)
000c98 f011      	BREQ _0x2000070
000c99 36e9      	CPI  R30,LOW(0x69)
000c9a f411      	BRNE _0x2000071
                 _0x2000070:
000c9b 6004      	ORI  R16,LOW(4)
000c9c c002      	RJMP _0x2000072
                 _0x2000071:
000c9d 37e5      	CPI  R30,LOW(0x75)
000c9e f4a1      	BRNE _0x2000073
                 _0x2000072:
000c9f e0ea      	LDI  R30,LOW(10)
000ca0 8bec      	STD  Y+20,R30
000ca1 ff01      	SBRS R16,1
000ca2 c008      	RJMP _0x2000074
                +
000ca3 e0e0     +LDI R30 , LOW ( 0x3B9ACA00 )
000ca4 ecfa     +LDI R31 , HIGH ( 0x3B9ACA00 )
000ca5 e96a     +LDI R22 , BYTE3 ( 0x3B9ACA00 )
000ca6 e37b     +LDI R23 , BYTE4 ( 0x3B9ACA00 )
                 	__GETD1N 0x3B9ACA00
000ca7 940e 10b5 	CALL SUBOPT_0x42
000ca9 e01a      	LDI  R17,LOW(10)
000caa c023      	RJMP _0x2000075
                 _0x2000074:
                +
000cab e1e0     +LDI R30 , LOW ( 0x2710 )
000cac e2f7     +LDI R31 , HIGH ( 0x2710 )
000cad e060     +LDI R22 , BYTE3 ( 0x2710 )
000cae e070     +LDI R23 , BYTE4 ( 0x2710 )
                 	__GETD1N 0x2710
000caf 940e 10b5 	CALL SUBOPT_0x42
000cb1 e015      	LDI  R17,LOW(5)
000cb2 c01b      	RJMP _0x2000075
                 _0x2000073:
000cb3 35e8      	CPI  R30,LOW(0x58)
000cb4 f411      	BRNE _0x2000077
000cb5 6008      	ORI  R16,LOW(8)
000cb6 c004      	RJMP _0x2000078
                 _0x2000077:
000cb7 37e8      	CPI  R30,LOW(0x78)
000cb8 f011      	BREQ PC+3
000cb9 940c 0da5 	JMP _0x20000B6
                 _0x2000078:
000cbb e1e0      	LDI  R30,LOW(16)
000cbc 8bec      	STD  Y+20,R30
000cbd ff01      	SBRS R16,1
000cbe c008      	RJMP _0x200007A
                +
000cbf e0e0     +LDI R30 , LOW ( 0x10000000 )
000cc0 e0f0     +LDI R31 , HIGH ( 0x10000000 )
000cc1 e060     +LDI R22 , BYTE3 ( 0x10000000 )
000cc2 e170     +LDI R23 , BYTE4 ( 0x10000000 )
                 	__GETD1N 0x10000000
000cc3 940e 10b5 	CALL SUBOPT_0x42
000cc5 e018      	LDI  R17,LOW(8)
000cc6 c007      	RJMP _0x2000075
                 _0x200007A:
                +
000cc7 e0e0     +LDI R30 , LOW ( 0x1000 )
000cc8 e1f0     +LDI R31 , HIGH ( 0x1000 )
000cc9 e060     +LDI R22 , BYTE3 ( 0x1000 )
000cca e070     +LDI R23 , BYTE4 ( 0x1000 )
                 	__GETD1N 0x1000
000ccb 940e 10b5 	CALL SUBOPT_0x42
000ccd e014      	LDI  R17,LOW(4)
                 _0x2000075:
000cce 3040      	CPI  R20,0
000ccf f011      	BREQ _0x200007B
000cd0 770f      	ANDI R16,LOW(127)
000cd1 c001      	RJMP _0x200007C
                 _0x200007B:
000cd2 e041      	LDI  R20,LOW(1)
                 _0x200007C:
000cd3 ff01      	SBRS R16,1
000cd4 c008      	RJMP _0x200007D
000cd5 940e 10a1 	CALL SUBOPT_0x3E
000cd7 940e 1095 	CALL SUBOPT_0x3C
000cd9 9614      	ADIW R26,4
000cda 940e 1380 	CALL __GETD1P
000cdc c00f      	RJMP _0x2000110
                 _0x200007D:
000cdd ff02      	SBRS R16,2
000cde c007      	RJMP _0x200007F
000cdf 940e 10a1 	CALL SUBOPT_0x3E
000ce1 940e 10b0 	CALL SUBOPT_0x41
000ce3 940e 12dc 	CALL __CWD1
000ce5 c006      	RJMP _0x2000110
                 _0x200007F:
000ce6 940e 10a1 	CALL SUBOPT_0x3E
000ce8 940e 10b0 	CALL SUBOPT_0x41
000cea 2766      	CLR  R22
000ceb 2777      	CLR  R23
                 _0x2000110:
                +
000cec 87ea     +STD Y + 10 , R30
000ced 87fb     +STD Y + 10 + 1 , R31
000cee 876c     +STD Y + 10 + 2 , R22
000cef 877d     +STD Y + 10 + 3 , R23
                 	__PUTD1S 10
000cf0 ff02      	SBRS R16,2
000cf1 c012      	RJMP _0x2000081
000cf2 85ad      	LDD  R26,Y+13
000cf3 23aa      	TST  R26
000cf4 f442      	BRPL _0x2000082
000cf5 940e 10a3 	CALL SUBOPT_0x3F
000cf7 940e 12bd 	CALL __ANEGD1
000cf9 940e 109c 	CALL SUBOPT_0x3D
000cfb e2ed      	LDI  R30,LOW(45)
000cfc 8bed      	STD  Y+21,R30
                 _0x2000082:
000cfd 89ed      	LDD  R30,Y+21
000cfe 30e0      	CPI  R30,0
000cff f019      	BREQ _0x2000083
000d00 5f1f      	SUBI R17,-LOW(1)
000d01 5f4f      	SUBI R20,-LOW(1)
000d02 c001      	RJMP _0x2000084
                 _0x2000083:
000d03 7f0b      	ANDI R16,LOW(251)
                 _0x2000084:
                 _0x2000081:
000d04 2f34      	MOV  R19,R20
                 _0x200006D:
000d05 fd00      	SBRC R16,0
000d06 c014      	RJMP _0x2000085
                 _0x2000086:
000d07 1715      	CP   R17,R21
000d08 f410      	BRSH _0x2000089
000d09 1735      	CP   R19,R21
000d0a f008      	BRLO _0x200008A
                 _0x2000089:
000d0b c00f      	RJMP _0x2000088
                 _0x200008A:
000d0c ff07      	SBRS R16,7
000d0d c008      	RJMP _0x200008B
000d0e ff02      	SBRS R16,2
000d0f c004      	RJMP _0x200008C
000d10 7f0b      	ANDI R16,LOW(251)
000d11 892d      	LDD  R18,Y+21
000d12 5011      	SUBI R17,LOW(1)
000d13 c001      	RJMP _0x200008D
                 _0x200008C:
000d14 e320      	LDI  R18,LOW(48)
                 _0x200008D:
000d15 c001      	RJMP _0x200008E
                 _0x200008B:
000d16 e220      	LDI  R18,LOW(32)
                 _0x200008E:
000d17 940e 1076 	CALL SUBOPT_0x38
000d19 5051      	SUBI R21,LOW(1)
000d1a cfec      	RJMP _0x2000086
                 _0x2000088:
                 _0x2000085:
                 _0x200008F:
000d1b 1714      	CP   R17,R20
000d1c f490      	BRSH _0x2000091
000d1d 6100      	ORI  R16,LOW(16)
000d1e ff02      	SBRS R16,2
000d1f c006      	RJMP _0x2000092
000d20 940e 10ba 	CALL SUBOPT_0x43
000d22 f009      	BREQ _0x2000093
000d23 5051      	SUBI R21,LOW(1)
                 _0x2000093:
000d24 5011      	SUBI R17,LOW(1)
000d25 5041      	SUBI R20,LOW(1)
                 _0x2000092:
000d26 e3e0      	LDI  R30,LOW(48)
000d27 93ea      	ST   -Y,R30
000d28 940e 108d 	CALL SUBOPT_0x3B
000d2a 3050      	CPI  R21,0
000d2b f009      	BREQ _0x2000094
000d2c 5051      	SUBI R21,LOW(1)
                 _0x2000094:
000d2d 5041      	SUBI R20,LOW(1)
000d2e cfec      	RJMP _0x200008F
                 _0x2000091:
000d2f 2f31      	MOV  R19,R17
000d30 89ec      	LDD  R30,Y+20
000d31 30e0      	CPI  R30,0
000d32 f4b9      	BRNE _0x2000095
                 _0x2000096:
000d33 3030      	CPI  R19,0
000d34 f0a1      	BREQ _0x2000098
000d35 ff03      	SBRS R16,3
000d36 c006      	RJMP _0x2000099
000d37 85ee      	LDD  R30,Y+14
000d38 85ff      	LDD  R31,Y+14+1
000d39 9125      	LPM  R18,Z+
000d3a 87ee      	STD  Y+14,R30
000d3b 87ff      	STD  Y+14+1,R31
000d3c c005      	RJMP _0x200009A
                 _0x2000099:
000d3d 85ae      	LDD  R26,Y+14
000d3e 85bf      	LDD  R27,Y+14+1
000d3f 912d      	LD   R18,X+
000d40 87ae      	STD  Y+14,R26
000d41 87bf      	STD  Y+14+1,R27
                 _0x200009A:
000d42 940e 1076 	CALL SUBOPT_0x38
000d44 3050      	CPI  R21,0
000d45 f009      	BREQ _0x200009B
000d46 5051      	SUBI R21,LOW(1)
                 _0x200009B:
000d47 5031      	SUBI R19,LOW(1)
000d48 cfea      	RJMP _0x2000096
                 _0x2000098:
000d49 c051      	RJMP _0x200009C
                 _0x2000095:
                 _0x200009E:
000d4a 940e 10ce 	CALL SUBOPT_0x44
000d4c 940e 131f 	CALL __DIVD21U
000d4e 2f2e      	MOV  R18,R30
000d4f 302a      	CPI  R18,10
000d50 f030      	BRLO _0x20000A0
000d51 ff03      	SBRS R16,3
000d52 c002      	RJMP _0x20000A1
000d53 5c29      	SUBI R18,-LOW(55)
000d54 c001      	RJMP _0x20000A2
                 _0x20000A1:
000d55 5a29      	SUBI R18,-LOW(87)
                 _0x20000A2:
000d56 c001      	RJMP _0x20000A3
                 _0x20000A0:
000d57 5d20      	SUBI R18,-LOW(48)
                 _0x20000A3:
000d58 fd04      	SBRC R16,4
000d59 c021      	RJMP _0x20000A5
000d5a 3321      	CPI  R18,49
000d5b f460      	BRSH _0x20000A7
                +
000d5c 89a8     +LDD R26 , Y + 16
000d5d 89b9     +LDD R27 , Y + 16 + 1
000d5e 898a     +LDD R24 , Y + 16 + 2
000d5f 899b     +LDD R25 , Y + 16 + 3
                 	__GETD2S 16
                +
000d60 30a1     +CPI R26 , LOW ( 0x1 )
000d61 e0e0     +LDI R30 , HIGH ( 0x1 )
000d62 07be     +CPC R27 , R30
000d63 e0e0     +LDI R30 , BYTE3 ( 0x1 )
000d64 078e     +CPC R24 , R30
000d65 e0e0     +LDI R30 , BYTE4 ( 0x1 )
000d66 079e     +CPC R25 , R30
                 	__CPD2N 0x1
000d67 f409      	BRNE _0x20000A6
                 _0x20000A7:
000d68 c00b      	RJMP _0x20000A9
                 _0x20000A6:
000d69 1743      	CP   R20,R19
000d6a f440      	BRSH _0x2000111
000d6b 1753      	CP   R21,R19
000d6c f010      	BRLO _0x20000AC
000d6d ff00      	SBRS R16,0
000d6e c001      	RJMP _0x20000AD
                 _0x20000AC:
000d6f c010      	RJMP _0x20000AB
                 _0x20000AD:
000d70 e220      	LDI  R18,LOW(32)
000d71 ff07      	SBRS R16,7
000d72 c008      	RJMP _0x20000AE
                 _0x2000111:
000d73 e320      	LDI  R18,LOW(48)
                 _0x20000A9:
000d74 6100      	ORI  R16,LOW(16)
000d75 ff02      	SBRS R16,2
000d76 c004      	RJMP _0x20000AF
000d77 940e 10ba 	CALL SUBOPT_0x43
000d79 f009      	BREQ _0x20000B0
000d7a 5051      	SUBI R21,LOW(1)
                 _0x20000B0:
                 _0x20000AF:
                 _0x20000AE:
                 _0x20000A5:
000d7b 940e 1076 	CALL SUBOPT_0x38
000d7d 3050      	CPI  R21,0
000d7e f009      	BREQ _0x20000B1
000d7f 5051      	SUBI R21,LOW(1)
                 _0x20000B1:
                 _0x20000AB:
000d80 5031      	SUBI R19,LOW(1)
000d81 940e 10ce 	CALL SUBOPT_0x44
000d83 940e 135e 	CALL __MODD21U
000d85 940e 109c 	CALL SUBOPT_0x3D
000d87 89ec      	LDD  R30,Y+20
                +
000d88 89a8     +LDD R26 , Y + 16
000d89 89b9     +LDD R27 , Y + 16 + 1
000d8a 898a     +LDD R24 , Y + 16 + 2
000d8b 899b     +LDD R25 , Y + 16 + 3
                 	__GETD2S 16
000d8c 27ff      	CLR  R31
000d8d 2766      	CLR  R22
000d8e 2777      	CLR  R23
000d8f 940e 131f 	CALL __DIVD21U
000d91 940e 10b5 	CALL SUBOPT_0x42
                +
000d93 89e8     +LDD R30 , Y + 16
000d94 89f9     +LDD R31 , Y + 16 + 1
000d95 896a     +LDD R22 , Y + 16 + 2
000d96 897b     +LDD R23 , Y + 16 + 3
                 	__GETD1S 16
000d97 940e 13ac 	CALL __CPD10
000d99 f009      	BREQ _0x200009F
000d9a cfaf      	RJMP _0x200009E
                 _0x200009F:
                 _0x200009C:
000d9b ff00      	SBRS R16,0
000d9c c008      	RJMP _0x20000B2
                 _0x20000B3:
000d9d 3050      	CPI  R21,0
000d9e f031      	BREQ _0x20000B5
000d9f 5051      	SUBI R21,LOW(1)
000da0 e2e0      	LDI  R30,LOW(32)
000da1 93ea      	ST   -Y,R30
000da2 940e 108d 	CALL SUBOPT_0x3B
000da4 cff8      	RJMP _0x20000B3
                 _0x20000B5:
                 _0x20000B2:
                 _0x20000B6:
                 _0x2000054:
                 _0x200010F:
000da5 e010      	LDI  R17,LOW(0)
                 _0x2000035:
000da6 ce06      	RJMP _0x2000030
                 _0x2000032:
000da7 81ae      	LDD  R26,Y+6
000da8 81bf      	LDD  R27,Y+6+1
000da9 940e 137c 	CALL __GETW1P
000dab 940e 13b7 	CALL __LOADLOCR6
000dad 96ef      	ADIW R28,63
000dae 966f      	ADIW R28,31
000daf 9508      	RET
                 _sprintf:
000db0 92ff      	PUSH R15
000db1 2ef8      	MOV  R15,R24
000db2 9726      	SBIW R28,6
000db3 940e 13b2 	CALL __SAVELOCR4
000db5 940e 10d7 	CALL SUBOPT_0x45
000db7 9730      	SBIW R30,0
000db8 f419      	BRNE _0x20000B7
000db9 efef      	LDI  R30,LOW(65535)
000dba efff      	LDI  R31,HIGH(65535)
000dbb c025      	RJMP _0x20A0004
                 _0x20000B7:
000dbc 01de      	MOVW R26,R28
000dbd 9616      	ADIW R26,6
000dbe 940e 12b0 	CALL __ADDW2R15
000dc0 018d      	MOVW R16,R26
000dc1 940e 10d7 	CALL SUBOPT_0x45
000dc3 83ee      	STD  Y+6,R30
000dc4 83ff      	STD  Y+6+1,R31
000dc5 e0e0      	LDI  R30,LOW(0)
000dc6 87e8      	STD  Y+8,R30
000dc7 87e9      	STD  Y+8+1,R30
000dc8 01de      	MOVW R26,R28
000dc9 961a      	ADIW R26,10
000dca 940e 12b0 	CALL __ADDW2R15
000dcc 940e 137c 	CALL __GETW1P
000dce 93fa      	ST   -Y,R31
000dcf 93ea      	ST   -Y,R30
000dd0 931a      	ST   -Y,R17
000dd1 930a      	ST   -Y,R16
000dd2 e8e3      	LDI  R30,LOW(_put_buff_G100)
000dd3 e0fa      	LDI  R31,HIGH(_put_buff_G100)
000dd4 93fa      	ST   -Y,R31
000dd5 93ea      	ST   -Y,R30
000dd6 01fe      	MOVW R30,R28
000dd7 963a      	ADIW R30,10
000dd8 93fa      	ST   -Y,R31
000dd9 93ea      	ST   -Y,R30
000dda ddb7      	RCALL __print_G100
000ddb 019f      	MOVW R18,R30
000ddc 81ae      	LDD  R26,Y+6
000ddd 81bf      	LDD  R27,Y+6+1
000dde e0e0      	LDI  R30,LOW(0)
000ddf 93ec      	ST   X,R30
000de0 01f9      	MOVW R30,R18
                 _0x20A0004:
000de1 940e 13b9 	CALL __LOADLOCR4
000de3 962a      	ADIW R28,10
000de4 90ff      	POP  R15
000de5 9508      	RET
                 
                 	.CSEG
                 _strcpyf:
000de6 91e9          ld   r30,y+
000de7 91f9          ld   r31,y+
000de8 91a9          ld   r26,y+
000de9 91b9          ld   r27,y+
000dea 01cd          movw r24,r26
                 strcpyf0:
000deb 9005      	lpm  r0,z+
000dec 920d          st   x+,r0
000ded 2000          tst  r0
000dee f7e1          brne strcpyf0
000def 01fc          movw r30,r24
000df0 9508          ret
                 _strlen:
000df1 91a9          ld   r26,y+
000df2 91b9          ld   r27,y+
000df3 27ee          clr  r30
000df4 27ff          clr  r31
                 strlen0:
000df5 916d          ld   r22,x+
000df6 2366          tst  r22
000df7 f011          breq strlen1
000df8 9631          adiw r30,1
000df9 cffb          rjmp strlen0
                 strlen1:
000dfa 9508          ret
                 _strlenf:
000dfb 27aa          clr  r26
000dfc 27bb          clr  r27
000dfd 91e9          ld   r30,y+
000dfe 91f9          ld   r31,y+
                 strlenf0:
000dff 9005      	lpm  r0,z+
000e00 2000          tst  r0
000e01 f011          breq strlenf1
000e02 9611          adiw r26,1
000e03 cffb          rjmp strlenf0
                 strlenf1:
000e04 01fd          movw r30,r26
000e05 9508          ret
                 
                 	.CSEG
                 
                 	.CSEG
                 _ftrunc:
000e06 817b         ldd  r23,y+3
000e07 816a         ldd  r22,y+2
000e08 81f9         ldd  r31,y+1
000e09 81e8         ld   r30,y
000e0a fb77         bst  r23,7
000e0b 0f77         lsl  r23
000e0c fd67         sbrc r22,7
000e0d 6071         sbr  r23,1
000e0e 2f97         mov  r25,r23
000e0f 579e         subi r25,0x7e
000e10 f081         breq __ftrunc0
000e11 f078         brcs __ftrunc0
000e12 3198         cpi  r25,24
000e13 f490         brsh __ftrunc1
000e14 27aa         clr  r26
000e15 27bb         clr  r27
000e16 2788         clr  r24
                 __ftrunc2:
000e17 9408         sec
000e18 9587         ror  r24
000e19 95b7         ror  r27
000e1a 95a7         ror  r26
000e1b 959a         dec  r25
000e1c f7d1         brne __ftrunc2
000e1d 23ea         and  r30,r26
000e1e 23fb         and  r31,r27
000e1f 2368         and  r22,r24
000e20 c005         rjmp __ftrunc1
                 __ftrunc0:
000e21 94e8         clt
000e22 2777         clr  r23
000e23 27ee         clr  r30
000e24 27ff         clr  r31
000e25 2766         clr  r22
                 __ftrunc1:
000e26 776f         cbr  r22,0x80
000e27 9576         lsr  r23
000e28 f408         brcc __ftrunc3
000e29 6860         sbr  r22,0x80
                 __ftrunc3:
000e2a f977         bld  r23,7
000e2b 91a9         ld   r26,y+
000e2c 91b9         ld   r27,y+
000e2d 9189         ld   r24,y+
000e2e 9199         ld   r25,y+
000e2f 17ea         cp   r30,r26
000e30 07fb         cpc  r31,r27
000e31 0768         cpc  r22,r24
000e32 0779         cpc  r23,r25
000e33 fb97         bst  r25,7
000e34 9508         ret
                 _floor:
000e35 940e 0fe0 	CALL SUBOPT_0x20
000e37 940e 139a 	CALL __PUTPARD1
000e39 940e 0e06 	CALL _ftrunc
000e3b 940e 1395 	CALL __PUTD1S0
000e3d f419          brne __floor1
                 __floor0:
000e3e 940e 0fe0 	CALL SUBOPT_0x20
000e40 c009      	RJMP _0x20A0003
                 __floor1:
000e41 f7e6          brtc __floor0
000e42 940e 0fe0 	CALL SUBOPT_0x20
                +
000e44 e0a0     +LDI R26 , LOW ( 0x3F800000 )
000e45 e0b0     +LDI R27 , HIGH ( 0x3F800000 )
000e46 e880     +LDI R24 , BYTE3 ( 0x3F800000 )
000e47 e39f     +LDI R25 , BYTE4 ( 0x3F800000 )
                 	__GETD2N 0x3F800000
000e48 940e 11a6 	CALL __SUBF12
                 _0x20A0003:
000e4a 9624      	ADIW R28,4
000e4b 9508      	RET
                 
                 	.CSEG
                 _ftoa:
000e4c 9724      	SBIW R28,4
000e4d e0e0      	LDI  R30,LOW(0)
000e4e 83e8      	ST   Y,R30
000e4f 83e9      	STD  Y+1,R30
000e50 83ea      	STD  Y+2,R30
000e51 e3ef      	LDI  R30,LOW(63)
000e52 83eb      	STD  Y+3,R30
000e53 931a      	ST   -Y,R17
000e54 930a      	ST   -Y,R16
000e55 85eb      	LDD  R30,Y+11
000e56 85fc      	LDD  R31,Y+11+1
000e57 3fef      	CPI  R30,LOW(0xFFFF)
000e58 efaf      	LDI  R26,HIGH(0xFFFF)
000e59 07fa      	CPC  R31,R26
000e5a f429      	BRNE _0x208000D
000e5b d282      	RCALL SUBOPT_0x46
                +
000e5c e1ee     +LDI R30 , LOW ( 2 * _0x2080000 + ( 0 ) )
000e5d e0f3     +LDI R31 , HIGH ( 2 * _0x2080000 + ( 0 ) )
                 	__POINTW1FN _0x2080000,0
000e5e d1bc      	RCALL SUBOPT_0x2C
000e5f c08c      	RJMP _0x20A0002
                 _0x208000D:
000e60 3fef      	CPI  R30,LOW(0x7FFF)
000e61 e7af      	LDI  R26,HIGH(0x7FFF)
000e62 07fa      	CPC  R31,R26
000e63 f429      	BRNE _0x208000C
000e64 d279      	RCALL SUBOPT_0x46
                +
000e65 e1ef     +LDI R30 , LOW ( 2 * _0x2080000 + ( 1 ) )
000e66 e0f3     +LDI R31 , HIGH ( 2 * _0x2080000 + ( 1 ) )
                 	__POINTW1FN _0x2080000,1
000e67 d1b3      	RCALL SUBOPT_0x2C
000e68 c083      	RJMP _0x20A0002
                 _0x208000C:
000e69 85ac      	LDD  R26,Y+12
000e6a 23aa      	TST  R26
000e6b f452      	BRPL _0x208000F
                +
000e6c 85e9     +LDD R30 , Y + 9
000e6d 85fa     +LDD R31 , Y + 9 + 1
000e6e 856b     +LDD R22 , Y + 9 + 2
000e6f 857c     +LDD R23 , Y + 9 + 3
                 	__GETD1S 9
000e70 940e 1107 	CALL __ANEGF1
000e72 d270      	RCALL SUBOPT_0x47
000e73 d274      	RCALL SUBOPT_0x48
000e74 e2ed      	LDI  R30,LOW(45)
000e75 93ec      	ST   X,R30
                 _0x208000F:
000e76 85a8      	LDD  R26,Y+8
000e77 30a7      	CPI  R26,LOW(0x7)
000e78 f010      	BRLO _0x2080010
000e79 e0e6      	LDI  R30,LOW(6)
000e7a 87e8      	STD  Y+8,R30
                 _0x2080010:
000e7b 8518      	LDD  R17,Y+8
                 _0x2080011:
000e7c 2fe1      	MOV  R30,R17
000e7d 5011      	SUBI R17,1
000e7e 30e0      	CPI  R30,0
000e7f f021      	BREQ _0x2080013
000e80 d26e      	RCALL SUBOPT_0x49
000e81 d1db      	RCALL SUBOPT_0x34
000e82 d271      	RCALL SUBOPT_0x4A
000e83 cff8      	RJMP _0x2080011
                 _0x2080013:
000e84 d274      	RCALL SUBOPT_0x4B
000e85 940e 11ad 	CALL __ADDF12
000e87 d25b      	RCALL SUBOPT_0x47
000e88 e010      	LDI  R17,LOW(0)
                +
000e89 e0e0     +LDI R30 , LOW ( 0x3F800000 )
000e8a e0f0     +LDI R31 , HIGH ( 0x3F800000 )
000e8b e860     +LDI R22 , BYTE3 ( 0x3F800000 )
000e8c e37f     +LDI R23 , BYTE4 ( 0x3F800000 )
                 	__GETD1N 0x3F800000
000e8d d266      	RCALL SUBOPT_0x4A
                 _0x2080014:
000e8e d26a      	RCALL SUBOPT_0x4B
000e8f 940e 1290 	CALL __CMPF12
000e91 f060      	BRLO _0x2080016
000e92 d25c      	RCALL SUBOPT_0x49
000e93 d1b6      	RCALL SUBOPT_0x31
000e94 d25f      	RCALL SUBOPT_0x4A
000e95 5f1f      	SUBI R17,-LOW(1)
000e96 3217      	CPI  R17,39
000e97 f028      	BRLO _0x2080017
000e98 d245      	RCALL SUBOPT_0x46
                +
000e99 e2e3     +LDI R30 , LOW ( 2 * _0x2080000 + ( 5 ) )
000e9a e0f3     +LDI R31 , HIGH ( 2 * _0x2080000 + ( 5 ) )
                 	__POINTW1FN _0x2080000,5
000e9b d17f      	RCALL SUBOPT_0x2C
000e9c c04f      	RJMP _0x20A0002
                 _0x2080017:
000e9d cff0      	RJMP _0x2080014
                 _0x2080016:
000e9e 3010      	CPI  R17,0
000e9f f421      	BRNE _0x2080018
000ea0 d247      	RCALL SUBOPT_0x48
000ea1 e3e0      	LDI  R30,LOW(48)
000ea2 93ec      	ST   X,R30
000ea3 c022      	RJMP _0x2080019
                 _0x2080018:
                 _0x208001A:
000ea4 2fe1      	MOV  R30,R17
000ea5 5011      	SUBI R17,1
000ea6 30e0      	CPI  R30,0
000ea7 f0f1      	BREQ _0x208001C
000ea8 d246      	RCALL SUBOPT_0x49
000ea9 d1b3      	RCALL SUBOPT_0x34
000eaa d1ab      	RCALL SUBOPT_0x33
000eab 940e 139a 	CALL __PUTPARD1
000ead 940e 0e35 	CALL _floor
000eaf d244      	RCALL SUBOPT_0x4A
000eb0 d248      	RCALL SUBOPT_0x4B
000eb1 940e 124b 	CALL __DIVF21
000eb3 940e 113a 	CALL __CFD1U
000eb5 2f0e      	MOV  R16,R30
000eb6 d231      	RCALL SUBOPT_0x48
000eb7 2fe0      	MOV  R30,R16
000eb8 5de0      	SUBI R30,-LOW(48)
000eb9 93ec      	ST   X,R30
000eba d157      	RCALL SUBOPT_0x2A
000ebb d233      	RCALL SUBOPT_0x49
000ebc 940e 12dc 	CALL __CWD1
000ebe 940e 1173 	CALL __CDF1
000ec0 940e 11fd 	CALL __MULF12
000ec2 d23f      	RCALL SUBOPT_0x4C
000ec3 d1a7      	RCALL SUBOPT_0x36
000ec4 d21e      	RCALL SUBOPT_0x47
000ec5 cfde      	RJMP _0x208001A
                 _0x208001C:
                 _0x2080019:
000ec6 85e8      	LDD  R30,Y+8
000ec7 30e0      	CPI  R30,0
000ec8 f0f9      	BREQ _0x20A0001
000ec9 d21e      	RCALL SUBOPT_0x48
000eca e2ee      	LDI  R30,LOW(46)
000ecb 93ec      	ST   X,R30
                 _0x208001E:
000ecc 85e8      	LDD  R30,Y+8
000ecd 50e1      	SUBI R30,LOW(1)
000ece 87e8      	STD  Y+8,R30
000ecf 5fef      	SUBI R30,-LOW(1)
000ed0 f0b9      	BREQ _0x2080020
000ed1 d230      	RCALL SUBOPT_0x4C
000ed2 d177      	RCALL SUBOPT_0x31
000ed3 d20f      	RCALL SUBOPT_0x47
                +
000ed4 85e9     +LDD R30 , Y + 9
000ed5 85fa     +LDD R31 , Y + 9 + 1
000ed6 856b     +LDD R22 , Y + 9 + 2
000ed7 857c     +LDD R23 , Y + 9 + 3
                 	__GETD1S 9
000ed8 940e 113a 	CALL __CFD1U
000eda 2f0e      	MOV  R16,R30
000edb d20c      	RCALL SUBOPT_0x48
000edc 2fe0      	MOV  R30,R16
000edd 5de0      	SUBI R30,-LOW(48)
000ede 93ec      	ST   X,R30
000edf d132      	RCALL SUBOPT_0x2A
000ee0 d221      	RCALL SUBOPT_0x4C
000ee1 940e 12dc 	CALL __CWD1
000ee3 940e 1173 	CALL __CDF1
000ee5 d185      	RCALL SUBOPT_0x36
000ee6 d1fc      	RCALL SUBOPT_0x47
000ee7 cfe4      	RJMP _0x208001E
                 _0x2080020:
                 _0x20A0001:
000ee8 81ae      	LDD  R26,Y+6
000ee9 81bf      	LDD  R27,Y+6+1
000eea e0e0      	LDI  R30,LOW(0)
000eeb 93ec      	ST   X,R30
                 _0x20A0002:
000eec 8119      	LDD  R17,Y+1
000eed 8108      	LDD  R16,Y+0
000eee 962d      	ADIW R28,13
000eef 9508      	RET
                 
                 	.DSEG
                 
                 	.CSEG
                 
                 	.DSEG
                 _OSDchr:
00255f           	.BYTE 0x100
                 _ch:
00265f           	.BYTE 0x1E
                 _sum:
00267d           	.BYTE 0x4
                 _RTC_sec:
002681           	.BYTE 0x4
                 _rx_buffer_usartd0:
002685           	.BYTE 0x8
                 _rx_wr_index_usartd0:
00268d           	.BYTE 0x1
                 _rx_rd_index_usartd0:
00268e           	.BYTE 0x1
                 _rx_counter_usartd0:
00268f           	.BYTE 0x1
                 _command:
002690           	.BYTE 0x1F
                 _command_size:
0026af           	.BYTE 0x1
                 _a_S0000018000:
0026b0           	.BYTE 0x2
                 _encorder_pointer:
0026b2           	.BYTE 0x2
                 _temp:
0026b4           	.BYTE 0x1E
                 _timer_pointer:
0026d2           	.BYTE 0x1
                 _hour:
0026d3           	.BYTE 0x1
                 _minu:
0026d4           	.BYTE 0x2
                 _date_pointer:
0026d6           	.BYTE 0x2
                 __seed_G104:
0026d8           	.BYTE 0x4
                 
                 	.CSEG
                 ;OPTIMIZER ADDED SUBROUTINE, CALLED 2 TIMES, CODE SIZE REDUCTION:2 WORDS
                 SUBOPT_0x0:
000ef0 91e0 26af 	LDS  R30,_command_size
000ef2 e0f0      	LDI  R31,0
000ef3 57e0      	SUBI R30,LOW(-_command)
000ef4 4df9      	SBCI R31,HIGH(-_command)
000ef5 9508      	RET
                 
                 ;OPTIMIZER ADDED SUBROUTINE, CALLED 2 TIMES, CODE SIZE REDUCTION:5 WORDS
                 SUBOPT_0x1:
000ef6 e1e0      	LDI  R30,LOW(16)
000ef7 93e0 0646 	STS  1606,R30
                +
000ef9 e081     +LDI R24 , LOW ( 1 )
                +__DELAY_USB_LOOP :
000efa 958a     +DEC R24
000efb f7f1     +BRNE __DELAY_USB_LOOP
                 	__DELAY_USB 1
000efc 81ea      	LDD  R30,Y+2
000efd 93ea      	ST   -Y,R30
000efe 940c 04be 	JMP  _SPI1_Write
                 
                 ;OPTIMIZER ADDED SUBROUTINE, CALLED 2 TIMES, CODE SIZE REDUCTION:4 WORDS
                 SUBOPT_0x2:
                +
000f00 e081     +LDI R24 , LOW ( 1 )
                +__DELAY_USB_LOOP :
000f01 958a     +DEC R24
000f02 f7f1     +BRNE __DELAY_USB_LOOP
                 	__DELAY_USB 1
000f03 e1e0      	LDI  R30,LOW(16)
000f04 93e0 0645 	STS  1605,R30
                +
000f06 e087     +LDI R24 , LOW ( 7 )
                +__DELAY_USB_LOOP :
000f07 958a     +DEC R24
000f08 f7f1     +BRNE __DELAY_USB_LOOP
                 	__DELAY_USB 7
000f09 9508      	RET
                 
                 ;OPTIMIZER ADDED SUBROUTINE, CALLED 2 TIMES, CODE SIZE REDUCTION:5 WORDS
                 SUBOPT_0x3:
000f0a e0e0      	LDI  R30,LOW(0)
000f0b e0f0      	LDI  R31,HIGH(0)
000f0c 93fa      	ST   -Y,R31
000f0d 93ea      	ST   -Y,R30
000f0e e0ec      	LDI  R30,LOW(12)
000f0f e0f0      	LDI  R31,HIGH(12)
000f10 93fa      	ST   -Y,R31
000f11 93ea      	ST   -Y,R30
000f12 940c 04db 	JMP  _MAX7456_SPI_WRITE
                 
                 ;OPTIMIZER ADDED SUBROUTINE, CALLED 5 TIMES, CODE SIZE REDUCTION:5 WORDS
                 SUBOPT_0x4:
000f14 e0e4      	LDI  R30,LOW(4)
000f15 e0f0      	LDI  R31,HIGH(4)
000f16 93fa      	ST   -Y,R31
000f17 93ea      	ST   -Y,R30
000f18 9508      	RET
                 
                 ;OPTIMIZER ADDED SUBROUTINE, CALLED 3 TIMES, CODE SIZE REDUCTION:1 WORDS
                 SUBOPT_0x5:
000f19 93fa      	ST   -Y,R31
000f1a 93ea      	ST   -Y,R30
000f1b 940c 04db 	JMP  _MAX7456_SPI_WRITE
                 
                 ;OPTIMIZER ADDED SUBROUTINE, CALLED 4 TIMES, CODE SIZE REDUCTION:3 WORDS
                 SUBOPT_0x6:
000f1d 81aa      	LDD  R26,Y+2
000f1e 81bb      	LDD  R27,Y+2+1
000f1f 0fae      	ADD  R26,R30
000f20 1fbf      	ADC  R27,R31
000f21 9508      	RET
                 
                 ;OPTIMIZER ADDED SUBROUTINE, CALLED 3 TIMES, CODE SIZE REDUCTION:9 WORDS
                 SUBOPT_0x7:
000f22 e0f0      	LDI  R31,0
000f23 93fa      	ST   -Y,R31
000f24 93ea      	ST   -Y,R30
000f25 940e 0519 	CALL _MAX7456_Write
000f27 01f2      	MOVW R30,R4
000f28 9508      	RET
                 
                 ;OPTIMIZER ADDED SUBROUTINE, CALLED 2 TIMES, CODE SIZE REDUCTION:4 WORDS
                 SUBOPT_0x8:
000f29 93fa      	ST   -Y,R31
000f2a 93ea      	ST   -Y,R30
000f2b 91e0 26b0 	LDS  R30,_a_S0000018000
000f2d 91f0 26b1 	LDS  R31,_a_S0000018000+1
                +
000f2f 57e1     +SUBI R30 , LOW ( - _OSDchr - ( 48 ) )
000f30 4dfa     +SBCI R31 , HIGH ( - _OSDchr - ( 48 ) )
                 	__ADDW1MN _OSDchr,48
000f31 81e0      	LD   R30,Z
000f32 9508      	RET
                 
                 ;OPTIMIZER ADDED SUBROUTINE, CALLED 21 TIMES, CODE SIZE REDUCTION:97 WORDS
                 SUBOPT_0x9:
000f33 e0f0      	LDI  R31,0
000f34 93fa      	ST   -Y,R31
000f35 93ea      	ST   -Y,R30
000f36 940c 0519 	JMP  _MAX7456_Write
                 
                 ;OPTIMIZER ADDED SUBROUTINE, CALLED 8 TIMES, CODE SIZE REDUCTION:25 WORDS
                 SUBOPT_0xA:
                +
000f38 91e0 2694+LDS R30 , _command + ( 4 )
                 	__GETB1MN _command,4
000f3a e0f0      	LDI  R31,0
000f3b 97f0      	SBIW R30,48
000f3c 9508      	RET
                 
                 ;OPTIMIZER ADDED SUBROUTINE, CALLED 14 TIMES, CODE SIZE REDUCTION:23 WORDS
                 SUBOPT_0xB:
000f3d 93fa      	ST   -Y,R31
000f3e 93ea      	ST   -Y,R30
000f3f 940c 0a71 	JMP  _puts
                 
                 ;OPTIMIZER ADDED SUBROUTINE, CALLED 2 TIMES, CODE SIZE REDUCTION:3 WORDS
                 SUBOPT_0xC:
000f41 e6e4      	LDI  R30,LOW(100)
000f42 e0f0      	LDI  R31,HIGH(100)
000f43 940e 131a 	CALL __DIVW21
000f45 5de0      	SUBI R30,-LOW(48)
000f46 93ea      	ST   -Y,R30
000f47 940c 04ad 	JMP  _putchar
                 
                 ;OPTIMIZER ADDED SUBROUTINE, CALLED 2 TIMES, CODE SIZE REDUCTION:8 WORDS
                 SUBOPT_0xD:
000f49 e6e4      	LDI  R30,LOW(100)
000f4a e0f0      	LDI  R31,HIGH(100)
000f4b 940e 1350 	CALL __MODW21
000f4d 01df      	MOVW R26,R30
000f4e e0ea      	LDI  R30,LOW(10)
000f4f e0f0      	LDI  R31,HIGH(10)
000f50 940e 131a 	CALL __DIVW21
000f52 5de0      	SUBI R30,-LOW(48)
000f53 93ea      	ST   -Y,R30
000f54 940c 04ad 	JMP  _putchar
                 
                 ;OPTIMIZER ADDED SUBROUTINE, CALLED 2 TIMES, CODE SIZE REDUCTION:3 WORDS
                 SUBOPT_0xE:
000f56 e0ea      	LDI  R30,LOW(10)
000f57 e0f0      	LDI  R31,HIGH(10)
000f58 940e 1350 	CALL __MODW21
000f5a 5de0      	SUBI R30,-LOW(48)
000f5b 93ea      	ST   -Y,R30
000f5c 940c 04ad 	JMP  _putchar
                 
                 ;OPTIMIZER ADDED SUBROUTINE, CALLED 2 TIMES, CODE SIZE REDUCTION:2 WORDS
                 SUBOPT_0xF:
000f5e 0198      	MOVW R18,R16
000f5f e9a0      	LDI  R26,LOW(_command)
000f60 e2b6      	LDI  R27,HIGH(_command)
000f61 0fa2      	ADD  R26,R18
000f62 1fb3      	ADC  R27,R19
000f63 91ac      	LD   R26,X
000f64 33ab      	CPI  R26,LOW(0x3B)
000f65 9508      	RET
                 
                 ;OPTIMIZER ADDED SUBROUTINE, CALLED 2 TIMES, CODE SIZE REDUCTION:8 WORDS
                 SUBOPT_0x10:
000f66 e9a0      	LDI  R26,LOW(_command)
000f67 e2b6      	LDI  R27,HIGH(_command)
000f68 0fa2      	ADD  R26,R18
000f69 1fb3      	ADC  R27,R19
000f6a 91ec      	LD   R30,X
000f6b e0f0      	LDI  R31,0
000f6c 5ae1      	SUBI R30,LOW(-_OSDchr)
000f6d 4dfa      	SBCI R31,HIGH(-_OSDchr)
000f6e 81e0      	LD   R30,Z
000f6f cfc3      	RJMP SUBOPT_0x9
                 
                 ;OPTIMIZER ADDED SUBROUTINE, CALLED 9 TIMES, CODE SIZE REDUCTION:13 WORDS
                 SUBOPT_0x11:
000f70 e0eb      	LDI  R30,LOW(11)
000f71 e0f0      	LDI  R31,HIGH(11)
000f72 93fa      	ST   -Y,R31
000f73 93ea      	ST   -Y,R30
000f74 9508      	RET
                 
                 ;OPTIMIZER ADDED SUBROUTINE, CALLED 3 TIMES, CODE SIZE REDUCTION:5 WORDS
                 SUBOPT_0x12:
000f75 e1e0      	LDI  R30,LOW(16)
000f76 93e0 0664 	STS  1636,R30
000f78 e0e0      	LDI  R30,LOW(0)
000f79 93e0 0664 	STS  1636,R30
000f7b 9508      	RET
                 
                 ;OPTIMIZER ADDED SUBROUTINE, CALLED 2 TIMES, CODE SIZE REDUCTION:2 WORDS
                 SUBOPT_0x13:
000f7c 93ea      	ST   -Y,R30
000f7d 940e 04d1 	CALL _spid_master_tx_rx
000f7f e0e0      	LDI  R30,LOW(0)
000f80 93ea      	ST   -Y,R30
000f81 940c 04d1 	JMP  _spid_master_tx_rx
                 
                 ;OPTIMIZER ADDED SUBROUTINE, CALLED 2 TIMES, CODE SIZE REDUCTION:5 WORDS
                 SUBOPT_0x14:
000f83 e0e1      	LDI  R30,LOW(1)
000f84 e0f0      	LDI  R31,HIGH(1)
000f85 93fa      	ST   -Y,R31
000f86 93ea      	ST   -Y,R30
000f87 91e0 26b2 	LDS  R30,_encorder_pointer
000f89 91f0 26b3 	LDS  R31,_encorder_pointer+1
000f8b 93fa      	ST   -Y,R31
000f8c 93ea      	ST   -Y,R30
000f8d 9508      	RET
                 
                 ;OPTIMIZER ADDED SUBROUTINE, CALLED 7 TIMES, CODE SIZE REDUCTION:33 WORDS
                 SUBOPT_0x15:
000f8e e0f0      	LDI  R31,0
000f8f 5ae1      	SUBI R30,LOW(-_OSDchr)
000f90 4dfa      	SBCI R31,HIGH(-_OSDchr)
000f91 81e0      	LD   R30,Z
000f92 cfa0      	RJMP SUBOPT_0x9
                 
                 ;OPTIMIZER ADDED SUBROUTINE, CALLED 3 TIMES, CODE SIZE REDUCTION:1 WORDS
                 SUBOPT_0x16:
000f93 93e0 26b2 	STS  _encorder_pointer,R30
000f95 93f0 26b3 	STS  _encorder_pointer+1,R31
000f97 9508      	RET
                 
                 ;OPTIMIZER ADDED SUBROUTINE, CALLED 2 TIMES, CODE SIZE REDUCTION:5 WORDS
                 SUBOPT_0x17:
000f98 931a      	ST   -Y,R17
000f99 930a      	ST   -Y,R16
000f9a 91a0 2681 	LDS  R26,_RTC_sec
000f9c 91b0 2682 	LDS  R27,_RTC_sec+1
000f9e 9180 2683 	LDS  R24,_RTC_sec+2
000fa0 9190 2684 	LDS  R25,_RTC_sec+3
000fa2 9508      	RET
                 
                 ;OPTIMIZER ADDED SUBROUTINE, CALLED 8 TIMES, CODE SIZE REDUCTION:74 WORDS
                 SUBOPT_0x18:
000fa3 93e0 26d2 	STS  _timer_pointer,R30
000fa5 e0e1      	LDI  R30,LOW(1)
000fa6 e0f0      	LDI  R31,HIGH(1)
000fa7 93fa      	ST   -Y,R31
000fa8 93ea      	ST   -Y,R30
000fa9 91e0 26d2 	LDS  R30,_timer_pointer
000fab e0f0      	LDI  R31,0
000fac 93fa      	ST   -Y,R31
000fad 93ea      	ST   -Y,R30
000fae 9508      	RET
                 
                 ;OPTIMIZER ADDED SUBROUTINE, CALLED 5 TIMES, CODE SIZE REDUCTION:9 WORDS
                 SUBOPT_0x19:
000faf 91e0 26d2 	LDS  R30,_timer_pointer
000fb1 50e1      	SUBI R30,LOW(1)
000fb2 cff0      	RJMP SUBOPT_0x18
                 
                 ;OPTIMIZER ADDED SUBROUTINE, CALLED 2 TIMES, CODE SIZE REDUCTION:4 WORDS
                 SUBOPT_0x1A:
000fb3 e0ea      	LDI  R30,LOW(10)
000fb4 e0f0      	LDI  R31,HIGH(10)
000fb5 940e 1350 	CALL __MODW21
                +
000fb7 57e1     +SUBI R30 , LOW ( - _OSDchr - ( 48 ) )
000fb8 4dfa     +SBCI R31 , HIGH ( - _OSDchr - ( 48 ) )
                 	__ADDW1MN _OSDchr,48
000fb9 81e0      	LD   R30,Z
000fba cf78      	RJMP SUBOPT_0x9
                 
                 ;OPTIMIZER ADDED SUBROUTINE, CALLED 2 TIMES, CODE SIZE REDUCTION:4 WORDS
                 SUBOPT_0x1B:
000fbb e0ea      	LDI  R30,LOW(10)
000fbc e0f0      	LDI  R31,HIGH(10)
000fbd 940e 131a 	CALL __DIVW21
                +
000fbf 57e1     +SUBI R30 , LOW ( - _OSDchr - ( 48 ) )
000fc0 4dfa     +SBCI R31 , HIGH ( - _OSDchr - ( 48 ) )
                 	__ADDW1MN _OSDchr,48
000fc1 81e0      	LD   R30,Z
000fc2 cf70      	RJMP SUBOPT_0x9
                 
                 ;OPTIMIZER ADDED SUBROUTINE, CALLED 3 TIMES, CODE SIZE REDUCTION:1 WORDS
                 SUBOPT_0x1C:
000fc3 91a0 26d4 	LDS  R26,_minu
000fc5 91b0 26d5 	LDS  R27,_minu+1
000fc7 9508      	RET
                 
                 ;OPTIMIZER ADDED SUBROUTINE, CALLED 3 TIMES, CODE SIZE REDUCTION:1 WORDS
                 SUBOPT_0x1D:
000fc8 93e0 26d4 	STS  _minu,R30
000fca 93f0 26d5 	STS  _minu+1,R31
000fcc 9508      	RET
                 
                 ;OPTIMIZER ADDED SUBROUTINE, CALLED 2 TIMES, CODE SIZE REDUCTION:4 WORDS
                 SUBOPT_0x1E:
000fcd e0e0      	LDI  R30,LOW(0)
000fce 93e0 2681 	STS  _RTC_sec,R30
000fd0 93e0 2682 	STS  _RTC_sec+1,R30
000fd2 93e0 2683 	STS  _RTC_sec+2,R30
000fd4 93e0 2684 	STS  _RTC_sec+3,R30
000fd6 9508      	RET
                 
                 ;OPTIMIZER ADDED SUBROUTINE, CALLED 2 TIMES, CODE SIZE REDUCTION:3 WORDS
                 SUBOPT_0x1F:
                +
000fd7 81ac     +LDD R26 , Y + 4
000fd8 81bd     +LDD R27 , Y + 4 + 1
000fd9 818e     +LDD R24 , Y + 4 + 2
000fda 819f     +LDD R25 , Y + 4 + 3
                 	__GETD2S 4
                +
000fdb e0ea     +LDI R30 , LOW ( 0xA )
000fdc e0f0     +LDI R31 , HIGH ( 0xA )
000fdd e060     +LDI R22 , BYTE3 ( 0xA )
000fde e070     +LDI R23 , BYTE4 ( 0xA )
                 	__GETD1N 0xA
000fdf 9508      	RET
                 
                 ;OPTIMIZER ADDED SUBROUTINE, CALLED 4 TIMES, CODE SIZE REDUCTION:3 WORDS
                 SUBOPT_0x20:
000fe0 940e 1390 	CALL __GETD1S0
000fe2 9508      	RET
                 
                 ;OPTIMIZER ADDED SUBROUTINE, CALLED 2 TIMES, CODE SIZE REDUCTION:7 WORDS
                 SUBOPT_0x21:
                +
000fe3 91e0 2693+LDS R30 , _command + ( 3 )
                 	__GETB1MN _command,3
000fe5 e0f0      	LDI  R31,0
000fe6 97f0      	SBIW R30,48
000fe7 e0aa      	LDI  R26,LOW(10)
000fe8 02ea      	MULS R30,R26
000fe9 01f0      	MOVW R30,R0
000fea 2fae      	MOV  R26,R30
000feb cf4c      	RJMP SUBOPT_0xA
                 
                 ;OPTIMIZER ADDED SUBROUTINE, CALLED 3 TIMES, CODE SIZE REDUCTION:1 WORDS
                 SUBOPT_0x22:
000fec e0f0      	LDI  R31,0
000fed 97f0      	SBIW R30,48
000fee 9508      	RET
                 
                 ;OPTIMIZER ADDED SUBROUTINE, CALLED 2 TIMES, CODE SIZE REDUCTION:2 WORDS
                 SUBOPT_0x23:
000fef 9731      	SBIW R30,1
000ff0 0fea      	ADD  R30,R26
000ff1 1ffb      	ADC  R31,R27
000ff2 dfd5      	RCALL SUBOPT_0x1D
000ff3 940c 071c 	JMP  _ontime_min
                 
                 ;OPTIMIZER ADDED SUBROUTINE, CALLED 8 TIMES, CODE SIZE REDUCTION:25 WORDS
                 SUBOPT_0x24:
000ff5 93e0 26d6 	STS  _date_pointer,R30
000ff7 93f0 26d7 	STS  _date_pointer+1,R31
000ff9 cf76      	RJMP SUBOPT_0x11
                 
                 ;OPTIMIZER ADDED SUBROUTINE, CALLED 15 TIMES, CODE SIZE REDUCTION:25 WORDS
                 SUBOPT_0x25:
000ffa 91e0 26d6 	LDS  R30,_date_pointer
000ffc 91f0 26d7 	LDS  R31,_date_pointer+1
000ffe 9508      	RET
                 
                 ;OPTIMIZER ADDED SUBROUTINE, CALLED 7 TIMES, CODE SIZE REDUCTION:15 WORDS
                 SUBOPT_0x26:
000fff dffa      	RCALL SUBOPT_0x25
001000 9731      	SBIW R30,1
001001 cff3      	RJMP SUBOPT_0x24
                 
                 ;OPTIMIZER ADDED SUBROUTINE, CALLED 7 TIMES, CODE SIZE REDUCTION:9 WORDS
                 SUBOPT_0x27:
001002 dff7      	RCALL SUBOPT_0x25
001003 93fa      	ST   -Y,R31
001004 93ea      	ST   -Y,R30
001005 9508      	RET
                 
                 ;OPTIMIZER ADDED SUBROUTINE, CALLED 3 TIMES, CODE SIZE REDUCTION:1 WORDS
                 SUBOPT_0x28:
001006 e0e0      	LDI  R30,LOW(0)
001007 93ea      	ST   -Y,R30
001008 940c 04d1 	JMP  _spid_master_tx_rx
                 
                 ;OPTIMIZER ADDED SUBROUTINE, CALLED 3 TIMES, CODE SIZE REDUCTION:7 WORDS
                 SUBOPT_0x29:
00100a 27ff      	CLR  R31
00100b 2766      	CLR  R22
00100c 2777      	CLR  R23
                +
00100d 7fef     +ANDI R30 , LOW ( 0xFF )
00100e 70f0     +ANDI R31 , HIGH ( 0xFF )
00100f 7060     +ANDI R22 , BYTE3 ( 0xFF )
001010 7070     +ANDI R23 , BYTE4 ( 0xFF )
                 	__ANDD1N 0xFF
001011 9508      	RET
                 
                 ;OPTIMIZER ADDED SUBROUTINE, CALLED 3 TIMES, CODE SIZE REDUCTION:1 WORDS
                 SUBOPT_0x2A:
001012 2fe0      	MOV  R30,R16
001013 e0f0      	LDI  R31,0
001014 9508      	RET
                 
                 ;OPTIMIZER ADDED SUBROUTINE, CALLED 3 TIMES, CODE SIZE REDUCTION:3 WORDS
                 SUBOPT_0x2B:
001015 940e 137c 	CALL __GETW1P
001017 9631      	ADIW R30,1
001018 93ed      	ST   X+,R30
001019 93fc      	ST   X,R31
00101a 9508      	RET
                 
                 ;OPTIMIZER ADDED SUBROUTINE, CALLED 5 TIMES, CODE SIZE REDUCTION:5 WORDS
                 SUBOPT_0x2C:
00101b 93fa      	ST   -Y,R31
00101c 93ea      	ST   -Y,R30
00101d 940c 0de6 	JMP  _strcpyf
                 
                 ;OPTIMIZER ADDED SUBROUTINE, CALLED 4 TIMES, CODE SIZE REDUCTION:33 WORDS
                 SUBOPT_0x2D:
                +
00101f 81ac     +LDD R26 , Y + 4
001020 81bd     +LDD R27 , Y + 4 + 1
001021 818e     +LDD R24 , Y + 4 + 2
001022 819f     +LDD R25 , Y + 4 + 3
                 	__GETD2S 4
                +
001023 e0e0     +LDI R30 , LOW ( 0x41200000 )
001024 e0f0     +LDI R31 , HIGH ( 0x41200000 )
001025 e260     +LDI R22 , BYTE3 ( 0x41200000 )
001026 e471     +LDI R23 , BYTE4 ( 0x41200000 )
                 	__GETD1N 0x41200000
001027 940e 11fd 	CALL __MULF12
                +
001029 83ec     +STD Y + 4 , R30
00102a 83fd     +STD Y + 4 + 1 , R31
00102b 836e     +STD Y + 4 + 2 , R22
00102c 837f     +STD Y + 4 + 3 , R23
                 	__PUTD1S 4
00102d 9508      	RET
                 
                 ;OPTIMIZER ADDED SUBROUTINE, CALLED 4 TIMES, CODE SIZE REDUCTION:21 WORDS
                 SUBOPT_0x2E:
                +
00102e 81ec     +LDD R30 , Y + 4
00102f 81fd     +LDD R31 , Y + 4 + 1
001030 816e     +LDD R22 , Y + 4 + 2
001031 817f     +LDD R23 , Y + 4 + 3
                 	__GETD1S 4
                +
001032 85ac     +LDD R26 , Y + 12
001033 85bd     +LDD R27 , Y + 12 + 1
001034 858e     +LDD R24 , Y + 12 + 2
001035 859f     +LDD R25 , Y + 12 + 3
                 	__GETD2S 12
001036 940e 1290 	CALL __CMPF12
001038 9508      	RET
                 
                 ;OPTIMIZER ADDED SUBROUTINE, CALLED 5 TIMES, CODE SIZE REDUCTION:5 WORDS
                 SUBOPT_0x2F:
                +
001039 85ac     +LDD R26 , Y + 12
00103a 85bd     +LDD R27 , Y + 12 + 1
00103b 858e     +LDD R24 , Y + 12 + 2
00103c 859f     +LDD R25 , Y + 12 + 3
                 	__GETD2S 12
00103d 9508      	RET
                 
                 ;OPTIMIZER ADDED SUBROUTINE, CALLED 2 TIMES, CODE SIZE REDUCTION:6 WORDS
                 SUBOPT_0x30:
                +
00103e eced     +LDI R30 , LOW ( 0x3DCCCCCD )
00103f ecfc     +LDI R31 , HIGH ( 0x3DCCCCCD )
001040 ec6c     +LDI R22 , BYTE3 ( 0x3DCCCCCD )
001041 e37d     +LDI R23 , BYTE4 ( 0x3DCCCCCD )
                 	__GETD1N 0x3DCCCCCD
001042 940e 11fd 	CALL __MULF12
                +
001044 87ec     +STD Y + 12 , R30
001045 87fd     +STD Y + 12 + 1 , R31
001046 876e     +STD Y + 12 + 2 , R22
001047 877f     +STD Y + 12 + 3 , R23
                 	__PUTD1S 12
001048 5f3f      	SUBI R19,-LOW(1)
001049 9508      	RET
                 
                 ;OPTIMIZER ADDED SUBROUTINE, CALLED 3 TIMES, CODE SIZE REDUCTION:5 WORDS
                 SUBOPT_0x31:
                +
00104a e0e0     +LDI R30 , LOW ( 0x41200000 )
00104b e0f0     +LDI R31 , HIGH ( 0x41200000 )
00104c e260     +LDI R22 , BYTE3 ( 0x41200000 )
00104d e471     +LDI R23 , BYTE4 ( 0x41200000 )
                 	__GETD1N 0x41200000
00104e 940e 11fd 	CALL __MULF12
001050 9508      	RET
                 
                 ;OPTIMIZER ADDED SUBROUTINE, CALLED 3 TIMES, CODE SIZE REDUCTION:1 WORDS
                 SUBOPT_0x32:
                +
001051 87ec     +STD Y + 12 , R30
001052 87fd     +STD Y + 12 + 1 , R31
001053 876e     +STD Y + 12 + 2 , R22
001054 877f     +STD Y + 12 + 3 , R23
                 	__PUTD1S 12
001055 9508      	RET
                 
                 ;OPTIMIZER ADDED SUBROUTINE, CALLED 3 TIMES, CODE SIZE REDUCTION:5 WORDS
                 SUBOPT_0x33:
                +
001056 e0a0     +LDI R26 , LOW ( 0x3F000000 )
001057 e0b0     +LDI R27 , HIGH ( 0x3F000000 )
001058 e080     +LDI R24 , BYTE3 ( 0x3F000000 )
001059 e39f     +LDI R25 , BYTE4 ( 0x3F000000 )
                 	__GETD2N 0x3F000000
00105a 940e 11ad 	CALL __ADDF12
00105c 9508      	RET
                 
                 ;OPTIMIZER ADDED SUBROUTINE, CALLED 3 TIMES, CODE SIZE REDUCTION:5 WORDS
                 SUBOPT_0x34:
                +
00105d eced     +LDI R30 , LOW ( 0x3DCCCCCD )
00105e ecfc     +LDI R31 , HIGH ( 0x3DCCCCCD )
00105f ec6c     +LDI R22 , BYTE3 ( 0x3DCCCCCD )
001060 e37d     +LDI R23 , BYTE4 ( 0x3DCCCCCD )
                 	__GETD1N 0x3DCCCCCD
001061 940e 11fd 	CALL __MULF12
001063 9508      	RET
                 
                 ;OPTIMIZER ADDED SUBROUTINE, CALLED 2 TIMES, CODE SIZE REDUCTION:1 WORDS
                 SUBOPT_0x35:
001064 85a8      	LDD  R26,Y+8
001065 85b9      	LDD  R27,Y+8+1
001066 9611      	ADIW R26,1
001067 87a8      	STD  Y+8,R26
001068 87b9      	STD  Y+8+1,R27
001069 9711      	SBIW R26,1
00106a 9508      	RET
                 
                 ;OPTIMIZER ADDED SUBROUTINE, CALLED 3 TIMES, CODE SIZE REDUCTION:1 WORDS
                 SUBOPT_0x36:
00106b 940e 139f 	CALL __SWAPD12
00106d 940e 11a6 	CALL __SUBF12
00106f 9508      	RET
                 
                 ;OPTIMIZER ADDED SUBROUTINE, CALLED 4 TIMES, CODE SIZE REDUCTION:6 WORDS
                 SUBOPT_0x37:
001070 85e8      	LDD  R30,Y+8
001071 85f9      	LDD  R31,Y+8+1
001072 9631      	ADIW R30,1
001073 87e8      	STD  Y+8,R30
001074 87f9      	STD  Y+8+1,R31
001075 9508      	RET
                 
                 ;OPTIMIZER ADDED SUBROUTINE, CALLED 5 TIMES, CODE SIZE REDUCTION:21 WORDS
                 SUBOPT_0x38:
001076 932a      	ST   -Y,R18
001077 81ef      	LDD  R30,Y+7
001078 85f8      	LDD  R31,Y+7+1
001079 93fa      	ST   -Y,R31
00107a 93ea      	ST   -Y,R30
00107b 85eb      	LDD  R30,Y+11
00107c 85fc      	LDD  R31,Y+11+1
00107d 9509      	ICALL
00107e 9508      	RET
                 
                 ;OPTIMIZER ADDED SUBROUTINE, CALLED 8 TIMES, CODE SIZE REDUCTION:25 WORDS
                 SUBOPT_0x39:
                +
00107f 01fe     +MOVW R30 , R28
001080 5ae6     +SUBI R30 , LOW ( - 90 )
001081 4fff     +SBCI R31 , HIGH ( - 90 )
001082 9001     +LD R0 , Z +
001083 81f0     +LD R31 , Z
001084 2de0     +MOV R30 , R0
                 	__GETW1SX 90
001085 9508      	RET
                 
                 ;OPTIMIZER ADDED SUBROUTINE, CALLED 7 TIMES, CODE SIZE REDUCTION:21 WORDS
                 SUBOPT_0x3A:
001086 9734      	SBIW R30,4
                +
001087 01de     +MOVW R26 , R28
001088 5aa6     +SUBI R26 , LOW ( - 90 )
001089 4fbf     +SBCI R27 , HIGH ( - 90 )
00108a 93ed     +ST X + , R30
00108b 93fc     +ST X , R31
                 	__PUTW1SX 90
00108c 9508      	RET
                 
                 ;OPTIMIZER ADDED SUBROUTINE, CALLED 4 TIMES, CODE SIZE REDUCTION:12 WORDS
                 SUBOPT_0x3B:
00108d 81ef      	LDD  R30,Y+7
00108e 85f8      	LDD  R31,Y+7+1
00108f 93fa      	ST   -Y,R31
001090 93ea      	ST   -Y,R30
001091 85eb      	LDD  R30,Y+11
001092 85fc      	LDD  R31,Y+11+1
001093 9509      	ICALL
001094 9508      	RET
                 
                 ;OPTIMIZER ADDED SUBROUTINE, CALLED 6 TIMES, CODE SIZE REDUCTION:17 WORDS
                 SUBOPT_0x3C:
                +
001095 01de     +MOVW R26 , R28
001096 5aa6     +SUBI R26 , LOW ( - 90 )
001097 4fbf     +SBCI R27 , HIGH ( - 90 )
001098 900d     +LD R0 , X +
001099 91bc     +LD R27 , X
00109a 2da0     +MOV R26 , R0
                 	__GETW2SX 90
00109b 9508      	RET
                 
                 ;OPTIMIZER ADDED SUBROUTINE, CALLED 4 TIMES, CODE SIZE REDUCTION:3 WORDS
                 SUBOPT_0x3D:
                +
00109c 87ea     +STD Y + 10 , R30
00109d 87fb     +STD Y + 10 + 1 , R31
00109e 876c     +STD Y + 10 + 2 , R22
00109f 877d     +STD Y + 10 + 3 , R23
                 	__PUTD1S 10
0010a0 9508      	RET
                 
                 ;OPTIMIZER ADDED SUBROUTINE, CALLED 6 TIMES, CODE SIZE REDUCTION:7 WORDS
                 SUBOPT_0x3E:
0010a1 dfdd      	RCALL SUBOPT_0x39
0010a2 cfe3      	RJMP SUBOPT_0x3A
                 
                 ;OPTIMIZER ADDED SUBROUTINE, CALLED 4 TIMES, CODE SIZE REDUCTION:3 WORDS
                 SUBOPT_0x3F:
                +
0010a3 85ea     +LDD R30 , Y + 10
0010a4 85fb     +LDD R31 , Y + 10 + 1
0010a5 856c     +LDD R22 , Y + 10 + 2
0010a6 857d     +LDD R23 , Y + 10 + 3
                 	__GETD1S 10
0010a7 9508      	RET
                 
                 ;OPTIMIZER ADDED SUBROUTINE, CALLED 2 TIMES, CODE SIZE REDUCTION:4 WORDS
                 SUBOPT_0x40:
0010a8 87ee      	STD  Y+14,R30
0010a9 87ff      	STD  Y+14+1,R31
0010aa 93fa      	ST   -Y,R31
0010ab 93ea      	ST   -Y,R30
0010ac 940e 0df1 	CALL _strlen
0010ae 2f1e      	MOV  R17,R30
0010af 9508      	RET
                 
                 ;OPTIMIZER ADDED SUBROUTINE, CALLED 4 TIMES, CODE SIZE REDUCTION:6 WORDS
                 SUBOPT_0x41:
0010b0 dfe4      	RCALL SUBOPT_0x3C
0010b1 9614      	ADIW R26,4
0010b2 940e 137c 	CALL __GETW1P
0010b4 9508      	RET
                 
                 ;OPTIMIZER ADDED SUBROUTINE, CALLED 5 TIMES, CODE SIZE REDUCTION:5 WORDS
                 SUBOPT_0x42:
                +
0010b5 8be8     +STD Y + 16 , R30
0010b6 8bf9     +STD Y + 16 + 1 , R31
0010b7 8b6a     +STD Y + 16 + 2 , R22
0010b8 8b7b     +STD Y + 16 + 3 , R23
                 	__PUTD1S 16
0010b9 9508      	RET
                 
                 ;OPTIMIZER ADDED SUBROUTINE, CALLED 2 TIMES, CODE SIZE REDUCTION:14 WORDS
                 SUBOPT_0x43:
0010ba 7f0b      	ANDI R16,LOW(251)
0010bb 89ed      	LDD  R30,Y+21
0010bc 93ea      	ST   -Y,R30
                +
0010bd 01fe     +MOVW R30 , R28
0010be 5ae9     +SUBI R30 , LOW ( - 87 )
0010bf 4fff     +SBCI R31 , HIGH ( - 87 )
0010c0 9001     +LD R0 , Z +
0010c1 81f0     +LD R31 , Z
0010c2 2de0     +MOV R30 , R0
                 	__GETW1SX 87
0010c3 93fa      	ST   -Y,R31
0010c4 93ea      	ST   -Y,R30
                +
0010c5 01fe     +MOVW R30 , R28
0010c6 5ae5     +SUBI R30 , LOW ( - 91 )
0010c7 4fff     +SBCI R31 , HIGH ( - 91 )
0010c8 9001     +LD R0 , Z +
0010c9 81f0     +LD R31 , Z
0010ca 2de0     +MOV R30 , R0
                 	__GETW1SX 91
0010cb 9509      	ICALL
0010cc 3050      	CPI  R21,0
0010cd 9508      	RET
                 
                 ;OPTIMIZER ADDED SUBROUTINE, CALLED 2 TIMES, CODE SIZE REDUCTION:3 WORDS
                 SUBOPT_0x44:
                +
0010ce 89e8     +LDD R30 , Y + 16
0010cf 89f9     +LDD R31 , Y + 16 + 1
0010d0 896a     +LDD R22 , Y + 16 + 2
0010d1 897b     +LDD R23 , Y + 16 + 3
                 	__GETD1S 16
                +
0010d2 85aa     +LDD R26 , Y + 10
0010d3 85bb     +LDD R27 , Y + 10 + 1
0010d4 858c     +LDD R24 , Y + 10 + 2
0010d5 859d     +LDD R25 , Y + 10 + 3
                 	__GETD2S 10
0010d6 9508      	RET
                 
                 ;OPTIMIZER ADDED SUBROUTINE, CALLED 2 TIMES, CODE SIZE REDUCTION:1 WORDS
                 SUBOPT_0x45:
0010d7 01de      	MOVW R26,R28
0010d8 961c      	ADIW R26,12
0010d9 940e 12b0 	CALL __ADDW2R15
0010db 940e 137c 	CALL __GETW1P
0010dd 9508      	RET
                 
                 ;OPTIMIZER ADDED SUBROUTINE, CALLED 3 TIMES, CODE SIZE REDUCTION:1 WORDS
                 SUBOPT_0x46:
0010de 81ee      	LDD  R30,Y+6
0010df 81ff      	LDD  R31,Y+6+1
0010e0 93fa      	ST   -Y,R31
0010e1 93ea      	ST   -Y,R30
0010e2 9508      	RET
                 
                 ;OPTIMIZER ADDED SUBROUTINE, CALLED 5 TIMES, CODE SIZE REDUCTION:5 WORDS
                 SUBOPT_0x47:
                +
0010e3 87e9     +STD Y + 9 , R30
0010e4 87fa     +STD Y + 9 + 1 , R31
0010e5 876b     +STD Y + 9 + 2 , R22
0010e6 877c     +STD Y + 9 + 3 , R23
                 	__PUTD1S 9
0010e7 9508      	RET
                 
                 ;OPTIMIZER ADDED SUBROUTINE, CALLED 5 TIMES, CODE SIZE REDUCTION:13 WORDS
                 SUBOPT_0x48:
0010e8 81ae      	LDD  R26,Y+6
0010e9 81bf      	LDD  R27,Y+6+1
0010ea 9611      	ADIW R26,1
0010eb 83ae      	STD  Y+6,R26
0010ec 83bf      	STD  Y+6+1,R27
0010ed 9711      	SBIW R26,1
0010ee 9508      	RET
                 
                 ;OPTIMIZER ADDED SUBROUTINE, CALLED 4 TIMES, CODE SIZE REDUCTION:3 WORDS
                 SUBOPT_0x49:
                +
0010ef 81aa     +LDD R26 , Y + 2
0010f0 81bb     +LDD R27 , Y + 2 + 1
0010f1 818c     +LDD R24 , Y + 2 + 2
0010f2 819d     +LDD R25 , Y + 2 + 3
                 	__GETD2S 2
0010f3 9508      	RET
                 
                 ;OPTIMIZER ADDED SUBROUTINE, CALLED 4 TIMES, CODE SIZE REDUCTION:3 WORDS
                 SUBOPT_0x4A:
                +
0010f4 83ea     +STD Y + 2 , R30
0010f5 83fb     +STD Y + 2 + 1 , R31
0010f6 836c     +STD Y + 2 + 2 , R22
0010f7 837d     +STD Y + 2 + 3 , R23
                 	__PUTD1S 2
0010f8 9508      	RET
                 
                 ;OPTIMIZER ADDED SUBROUTINE, CALLED 3 TIMES, CODE SIZE REDUCTION:9 WORDS
                 SUBOPT_0x4B:
                +
0010f9 81ea     +LDD R30 , Y + 2
0010fa 81fb     +LDD R31 , Y + 2 + 1
0010fb 816c     +LDD R22 , Y + 2 + 2
0010fc 817d     +LDD R23 , Y + 2 + 3
                 	__GETD1S 2
                +
0010fd 85a9     +LDD R26 , Y + 9
0010fe 85ba     +LDD R27 , Y + 9 + 1
0010ff 858b     +LDD R24 , Y + 9 + 2
001100 859c     +LDD R25 , Y + 9 + 3
                 	__GETD2S 9
001101 9508      	RET
                 
                 ;OPTIMIZER ADDED SUBROUTINE, CALLED 3 TIMES, CODE SIZE REDUCTION:1 WORDS
                 SUBOPT_0x4C:
                +
001102 85a9     +LDD R26 , Y + 9
001103 85ba     +LDD R27 , Y + 9 + 1
001104 858b     +LDD R24 , Y + 9 + 2
001105 859c     +LDD R25 , Y + 9 + 3
                 	__GETD2S 9
001106 9508      	RET
                 
                 
                 	.CSEG
                 __ANEGF1:
001107 9730      	SBIW R30,0
001108 4060      	SBCI R22,0
001109 4070      	SBCI R23,0
00110a f009      	BREQ __ANEGF10
00110b 5870      	SUBI R23,0x80
                 __ANEGF10:
00110c 9508      	RET
                 
                 __ROUND_REPACK:
00110d 2355      	TST  R21
00110e f442      	BRPL __REPACK
00110f 3850      	CPI  R21,0x80
001110 f411      	BRNE __ROUND_REPACK0
001111 ffe0      	SBRS R30,0
001112 c004      	RJMP __REPACK
                 __ROUND_REPACK0:
001113 9631      	ADIW R30,1
001114 1f69      	ADC  R22,R25
001115 1f79      	ADC  R23,R25
001116 f06b      	BRVS __REPACK1
                 
                 __REPACK:
001117 e850      	LDI  R21,0x80
001118 2757      	EOR  R21,R23
001119 f411      	BRNE __REPACK0
00111a 935f      	PUSH R21
00111b c0cf      	RJMP __ZERORES
                 __REPACK0:
00111c 3f5f      	CPI  R21,0xFF
00111d f031      	BREQ __REPACK1
00111e 0f66      	LSL  R22
00111f 0c00      	LSL  R0
001120 9557      	ROR  R21
001121 9567      	ROR  R22
001122 2f75      	MOV  R23,R21
001123 9508      	RET
                 __REPACK1:
001124 935f      	PUSH R21
001125 2000      	TST  R0
001126 f00a      	BRMI __REPACK2
001127 c0cf      	RJMP __MAXRES
                 __REPACK2:
001128 c0c8      	RJMP __MINRES
                 
                 __UNPACK:
001129 e850      	LDI  R21,0x80
00112a 2e19      	MOV  R1,R25
00112b 2215      	AND  R1,R21
00112c 0f88      	LSL  R24
00112d 1f99      	ROL  R25
00112e 2795      	EOR  R25,R21
00112f 0f55      	LSL  R21
001130 9587      	ROR  R24
                 
                 __UNPACK1:
001131 e850      	LDI  R21,0x80
001132 2e07      	MOV  R0,R23
001133 2205      	AND  R0,R21
001134 0f66      	LSL  R22
001135 1f77      	ROL  R23
001136 2775      	EOR  R23,R21
001137 0f55      	LSL  R21
001138 9567      	ROR  R22
001139 9508      	RET
                 
                 __CFD1U:
00113a 9468      	SET
00113b c001      	RJMP __CFD1U0
                 __CFD1:
00113c 94e8      	CLT
                 __CFD1U0:
00113d 935f      	PUSH R21
00113e dff2      	RCALL __UNPACK1
00113f 3870      	CPI  R23,0x80
001140 f018      	BRLO __CFD10
001141 3f7f      	CPI  R23,0xFF
001142 f408      	BRCC __CFD10
001143 c0a7      	RJMP __ZERORES
                 __CFD10:
001144 e156      	LDI  R21,22
001145 1b57      	SUB  R21,R23
001146 f4aa      	BRPL __CFD11
001147 9551      	NEG  R21
001148 3058      	CPI  R21,8
001149 f40e      	BRTC __CFD19
00114a 3059      	CPI  R21,9
                 __CFD19:
00114b f030      	BRLO __CFD17
00114c efef      	SER  R30
00114d efff      	SER  R31
00114e ef6f      	SER  R22
00114f e77f      	LDI  R23,0x7F
001150 f977      	BLD  R23,7
001151 c01a      	RJMP __CFD15
                 __CFD17:
001152 2777      	CLR  R23
001153 2355      	TST  R21
001154 f0b9      	BREQ __CFD15
                 __CFD18:
001155 0fee      	LSL  R30
001156 1fff      	ROL  R31
001157 1f66      	ROL  R22
001158 1f77      	ROL  R23
001159 955a      	DEC  R21
00115a f7d1      	BRNE __CFD18
00115b c010      	RJMP __CFD15
                 __CFD11:
00115c 2777      	CLR  R23
                 __CFD12:
00115d 3058      	CPI  R21,8
00115e f028      	BRLO __CFD13
00115f 2fef      	MOV  R30,R31
001160 2ff6      	MOV  R31,R22
001161 2f67      	MOV  R22,R23
001162 5058      	SUBI R21,8
001163 cff9      	RJMP __CFD12
                 __CFD13:
001164 2355      	TST  R21
001165 f031      	BREQ __CFD15
                 __CFD14:
001166 9576      	LSR  R23
001167 9567      	ROR  R22
001168 95f7      	ROR  R31
001169 95e7      	ROR  R30
00116a 955a      	DEC  R21
00116b f7d1      	BRNE __CFD14
                 __CFD15:
00116c 2000      	TST  R0
00116d f40a      	BRPL __CFD16
00116e d14e      	RCALL __ANEGD1
                 __CFD16:
00116f 915f      	POP  R21
001170 9508      	RET
                 
                 __CDF1U:
001171 9468      	SET
001172 c001      	RJMP __CDF1U0
                 __CDF1:
001173 94e8      	CLT
                 __CDF1U0:
001174 9730      	SBIW R30,0
001175 4060      	SBCI R22,0
001176 4070      	SBCI R23,0
001177 f0b1      	BREQ __CDF10
001178 2400      	CLR  R0
001179 f026      	BRTS __CDF11
00117a 2377      	TST  R23
00117b f412      	BRPL __CDF11
00117c 9400      	COM  R0
00117d d13f      	RCALL __ANEGD1
                 __CDF11:
00117e 2e17      	MOV  R1,R23
00117f e17e      	LDI  R23,30
001180 2011      	TST  R1
                 __CDF12:
001181 f032      	BRMI __CDF13
001182 957a      	DEC  R23
001183 0fee      	LSL  R30
001184 1fff      	ROL  R31
001185 1f66      	ROL  R22
001186 1c11      	ROL  R1
001187 cff9      	RJMP __CDF12
                 __CDF13:
001188 2fef      	MOV  R30,R31
001189 2ff6      	MOV  R31,R22
00118a 2d61      	MOV  R22,R1
00118b 935f      	PUSH R21
00118c df8a      	RCALL __REPACK
00118d 915f      	POP  R21
                 __CDF10:
00118e 9508      	RET
                 
                 __SWAPACC:
00118f 934f      	PUSH R20
001190 01af      	MOVW R20,R30
001191 01fd      	MOVW R30,R26
001192 01da      	MOVW R26,R20
001193 01ab      	MOVW R20,R22
001194 01bc      	MOVW R22,R24
001195 01ca      	MOVW R24,R20
001196 2d40      	MOV  R20,R0
001197 2c01      	MOV  R0,R1
001198 2e14      	MOV  R1,R20
001199 914f      	POP  R20
00119a 9508      	RET
                 
                 __UADD12:
00119b 0fea      	ADD  R30,R26
00119c 1ffb      	ADC  R31,R27
00119d 1f68      	ADC  R22,R24
00119e 9508      	RET
                 
                 __NEGMAN1:
00119f 95e0      	COM  R30
0011a0 95f0      	COM  R31
0011a1 9560      	COM  R22
0011a2 5fef      	SUBI R30,-1
0011a3 4fff      	SBCI R31,-1
0011a4 4f6f      	SBCI R22,-1
0011a5 9508      	RET
                 
                 __SUBF12:
0011a6 935f      	PUSH R21
0011a7 df81      	RCALL __UNPACK
0011a8 3890      	CPI  R25,0x80
0011a9 f171      	BREQ __ADDF129
0011aa e850      	LDI  R21,0x80
0011ab 2615      	EOR  R1,R21
                 
0011ac c004      	RJMP __ADDF120
                 
                 __ADDF12:
0011ad 935f      	PUSH R21
0011ae df7a      	RCALL __UNPACK
0011af 3890      	CPI  R25,0x80
0011b0 f139      	BREQ __ADDF129
                 
                 __ADDF120:
0011b1 3870      	CPI  R23,0x80
0011b2 f121      	BREQ __ADDF128
                 __ADDF121:
0011b3 2f57      	MOV  R21,R23
0011b4 1b59      	SUB  R21,R25
0011b5 f12b      	BRVS __ADDF1211
0011b6 f412      	BRPL __ADDF122
0011b7 dfd7      	RCALL __SWAPACC
0011b8 cffa      	RJMP __ADDF121
                 __ADDF122:
0011b9 3158      	CPI  R21,24
0011ba f018      	BRLO __ADDF123
0011bb 27aa      	CLR  R26
0011bc 27bb      	CLR  R27
0011bd 2788      	CLR  R24
                 __ADDF123:
0011be 3058      	CPI  R21,8
0011bf f028      	BRLO __ADDF124
0011c0 2fab      	MOV  R26,R27
0011c1 2fb8      	MOV  R27,R24
0011c2 2788      	CLR  R24
0011c3 5058      	SUBI R21,8
0011c4 cff9      	RJMP __ADDF123
                 __ADDF124:
0011c5 2355      	TST  R21
0011c6 f029      	BREQ __ADDF126
                 __ADDF125:
0011c7 9586      	LSR  R24
0011c8 95b7      	ROR  R27
0011c9 95a7      	ROR  R26
0011ca 955a      	DEC  R21
0011cb f7d9      	BRNE __ADDF125
                 __ADDF126:
0011cc 2d50      	MOV  R21,R0
0011cd 2551      	EOR  R21,R1
0011ce f072      	BRMI __ADDF127
0011cf dfcb      	RCALL __UADD12
0011d0 f438      	BRCC __ADDF129
0011d1 9567      	ROR  R22
0011d2 95f7      	ROR  R31
0011d3 95e7      	ROR  R30
0011d4 9573      	INC  R23
0011d5 f413      	BRVC __ADDF129
0011d6 c020      	RJMP __MAXRES
                 __ADDF128:
0011d7 dfb7      	RCALL __SWAPACC
                 __ADDF129:
0011d8 df3e      	RCALL __REPACK
0011d9 915f      	POP  R21
0011da 9508      	RET
                 __ADDF1211:
0011db f7d8      	BRCC __ADDF128
0011dc cffb      	RJMP __ADDF129
                 __ADDF127:
0011dd 1bea      	SUB  R30,R26
0011de 0bfb      	SBC  R31,R27
0011df 0b68      	SBC  R22,R24
0011e0 f051      	BREQ __ZERORES
0011e1 f410      	BRCC __ADDF1210
0011e2 9400      	COM  R0
0011e3 dfbb      	RCALL __NEGMAN1
                 __ADDF1210:
0011e4 2366      	TST  R22
0011e5 f392      	BRMI __ADDF129
0011e6 0fee      	LSL  R30
0011e7 1fff      	ROL  R31
0011e8 1f66      	ROL  R22
0011e9 957a      	DEC  R23
0011ea f7cb      	BRVC __ADDF1210
                 
                 __ZERORES:
0011eb 27ee      	CLR  R30
0011ec 27ff      	CLR  R31
0011ed 2766      	CLR  R22
0011ee 2777      	CLR  R23
0011ef 915f      	POP  R21
0011f0 9508      	RET
                 
                 __MINRES:
0011f1 efef      	SER  R30
0011f2 efff      	SER  R31
0011f3 e76f      	LDI  R22,0x7F
0011f4 ef7f      	SER  R23
0011f5 915f      	POP  R21
0011f6 9508      	RET
                 
                 __MAXRES:
0011f7 efef      	SER  R30
0011f8 efff      	SER  R31
0011f9 e76f      	LDI  R22,0x7F
0011fa e77f      	LDI  R23,0x7F
0011fb 915f      	POP  R21
0011fc 9508      	RET
                 
                 __MULF12:
0011fd 935f      	PUSH R21
0011fe df2a      	RCALL __UNPACK
0011ff 3870      	CPI  R23,0x80
001200 f351      	BREQ __ZERORES
001201 3890      	CPI  R25,0x80
001202 f341      	BREQ __ZERORES
001203 2401      	EOR  R0,R1
001204 9408      	SEC
001205 1f79      	ADC  R23,R25
001206 f423      	BRVC __MULF124
001207 f31c      	BRLT __ZERORES
                 __MULF125:
001208 2000      	TST  R0
001209 f33a      	BRMI __MINRES
00120a cfec      	RJMP __MAXRES
                 __MULF124:
00120b 920f      	PUSH R0
00120c 931f      	PUSH R17
00120d 932f      	PUSH R18
00120e 933f      	PUSH R19
00120f 934f      	PUSH R20
001210 2711      	CLR  R17
001211 2722      	CLR  R18
001212 2799      	CLR  R25
001213 9f68      	MUL  R22,R24
001214 01a0      	MOVW R20,R0
001215 9f8f      	MUL  R24,R31
001216 2d30      	MOV  R19,R0
001217 0d41      	ADD  R20,R1
001218 1f59      	ADC  R21,R25
001219 9f6b      	MUL  R22,R27
00121a 0d30      	ADD  R19,R0
00121b 1d41      	ADC  R20,R1
00121c 1f59      	ADC  R21,R25
00121d 9f8e      	MUL  R24,R30
00121e d027      	RCALL __MULF126
00121f 9fbf      	MUL  R27,R31
001220 d025      	RCALL __MULF126
001221 9f6a      	MUL  R22,R26
001222 d023      	RCALL __MULF126
001223 9fbe      	MUL  R27,R30
001224 d01d      	RCALL __MULF127
001225 9faf      	MUL  R26,R31
001226 d01b      	RCALL __MULF127
001227 9fae      	MUL  R26,R30
001228 0d11      	ADD  R17,R1
001229 1f29      	ADC  R18,R25
00122a 1f39      	ADC  R19,R25
00122b 1f49      	ADC  R20,R25
00122c 1f59      	ADC  R21,R25
00122d 2fe3      	MOV  R30,R19
00122e 2ff4      	MOV  R31,R20
00122f 2f65      	MOV  R22,R21
001230 2f52      	MOV  R21,R18
001231 914f      	POP  R20
001232 913f      	POP  R19
001233 912f      	POP  R18
001234 911f      	POP  R17
001235 900f      	POP  R0
001236 2366      	TST  R22
001237 f02a      	BRMI __MULF122
001238 0f55      	LSL  R21
001239 1fee      	ROL  R30
00123a 1fff      	ROL  R31
00123b 1f66      	ROL  R22
00123c c002      	RJMP __MULF123
                 __MULF122:
00123d 9573      	INC  R23
00123e f24b      	BRVS __MULF125
                 __MULF123:
00123f decd      	RCALL __ROUND_REPACK
001240 915f      	POP  R21
001241 9508      	RET
                 
                 __MULF127:
001242 0d10      	ADD  R17,R0
001243 1d21      	ADC  R18,R1
001244 1f39      	ADC  R19,R25
001245 c002      	RJMP __MULF128
                 __MULF126:
001246 0d20      	ADD  R18,R0
001247 1d31      	ADC  R19,R1
                 __MULF128:
001248 1f49      	ADC  R20,R25
001249 1f59      	ADC  R21,R25
00124a 9508      	RET
                 
                 __DIVF21:
00124b 935f      	PUSH R21
00124c dedc      	RCALL __UNPACK
00124d 3870      	CPI  R23,0x80
00124e f421      	BRNE __DIVF210
00124f 2011      	TST  R1
                 __DIVF211:
001250 f40a      	BRPL __DIVF219
001251 cf9f      	RJMP __MINRES
                 __DIVF219:
001252 cfa4      	RJMP __MAXRES
                 __DIVF210:
001253 3890      	CPI  R25,0x80
001254 f409      	BRNE __DIVF218
                 __DIVF217:
001255 cf95      	RJMP __ZERORES
                 __DIVF218:
001256 2401      	EOR  R0,R1
001257 9408      	SEC
001258 0b97      	SBC  R25,R23
001259 f41b      	BRVC __DIVF216
00125a f3d4      	BRLT __DIVF217
00125b 2000      	TST  R0
00125c cff3      	RJMP __DIVF211
                 __DIVF216:
00125d 2f79      	MOV  R23,R25
00125e 931f      	PUSH R17
00125f 932f      	PUSH R18
001260 933f      	PUSH R19
001261 934f      	PUSH R20
001262 2411      	CLR  R1
001263 2711      	CLR  R17
001264 2722      	CLR  R18
001265 2733      	CLR  R19
001266 2744      	CLR  R20
001267 2755      	CLR  R21
001268 e290      	LDI  R25,32
                 __DIVF212:
001269 17ae      	CP   R26,R30
00126a 07bf      	CPC  R27,R31
00126b 0786      	CPC  R24,R22
00126c 0741      	CPC  R20,R17
00126d f030      	BRLO __DIVF213
00126e 1bae      	SUB  R26,R30
00126f 0bbf      	SBC  R27,R31
001270 0b86      	SBC  R24,R22
001271 0b41      	SBC  R20,R17
001272 9408      	SEC
001273 c001      	RJMP __DIVF214
                 __DIVF213:
001274 9488      	CLC
                 __DIVF214:
001275 1f55      	ROL  R21
001276 1f22      	ROL  R18
001277 1f33      	ROL  R19
001278 1c11      	ROL  R1
001279 1faa      	ROL  R26
00127a 1fbb      	ROL  R27
00127b 1f88      	ROL  R24
00127c 1f44      	ROL  R20
00127d 959a      	DEC  R25
00127e f751      	BRNE __DIVF212
00127f 01f9      	MOVW R30,R18
001280 2d61      	MOV  R22,R1
001281 914f      	POP  R20
001282 913f      	POP  R19
001283 912f      	POP  R18
001284 911f      	POP  R17
001285 2366      	TST  R22
001286 f032      	BRMI __DIVF215
001287 0f55      	LSL  R21
001288 1fee      	ROL  R30
001289 1fff      	ROL  R31
00128a 1f66      	ROL  R22
00128b 957a      	DEC  R23
00128c f243      	BRVS __DIVF217
                 __DIVF215:
00128d de7f      	RCALL __ROUND_REPACK
00128e 915f      	POP  R21
00128f 9508      	RET
                 
                 __CMPF12:
001290 2399      	TST  R25
001291 f09a      	BRMI __CMPF120
001292 2377      	TST  R23
001293 f042      	BRMI __CMPF121
001294 1797      	CP   R25,R23
001295 f048      	BRLO __CMPF122
001296 f429      	BRNE __CMPF121
001297 17ae      	CP   R26,R30
001298 07bf      	CPC  R27,R31
001299 0786      	CPC  R24,R22
00129a f020      	BRLO __CMPF122
00129b f031      	BREQ __CMPF123
                 __CMPF121:
00129c 9498      	CLZ
00129d 9488      	CLC
00129e 9508      	RET
                 __CMPF122:
00129f 9498      	CLZ
0012a0 9408      	SEC
0012a1 9508      	RET
                 __CMPF123:
0012a2 9418      	SEZ
0012a3 9488      	CLC
0012a4 9508      	RET
                 __CMPF120:
0012a5 2377      	TST  R23
0012a6 f7c2      	BRPL __CMPF122
0012a7 1797      	CP   R25,R23
0012a8 f398      	BRLO __CMPF121
0012a9 f7a9      	BRNE __CMPF122
0012aa 17ea      	CP   R30,R26
0012ab 07fb      	CPC  R31,R27
0012ac 0768      	CPC  R22,R24
0012ad f388      	BRLO __CMPF122
0012ae f399      	BREQ __CMPF123
0012af cfec      	RJMP __CMPF121
                 
                 __ADDW2R15:
0012b0 2400      	CLR  R0
0012b1 0daf      	ADD  R26,R15
0012b2 1db0      	ADC  R27,R0
0012b3 9508      	RET
                 
                 __ORD12:
0012b4 2bea      	OR   R30,R26
0012b5 2bfb      	OR   R31,R27
0012b6 2b68      	OR   R22,R24
0012b7 2b79      	OR   R23,R25
0012b8 9508      	RET
                 
                 __ANEGW1:
0012b9 95f1      	NEG  R31
0012ba 95e1      	NEG  R30
0012bb 40f0      	SBCI R31,0
0012bc 9508      	RET
                 
                 __ANEGD1:
0012bd 95f0      	COM  R31
0012be 9560      	COM  R22
0012bf 9570      	COM  R23
0012c0 95e1      	NEG  R30
0012c1 4fff      	SBCI R31,-1
0012c2 4f6f      	SBCI R22,-1
0012c3 4f7f      	SBCI R23,-1
0012c4 9508      	RET
                 
                 __LSLD12:
0012c5 23ee      	TST  R30
0012c6 2e0e      	MOV  R0,R30
0012c7 01fd      	MOVW R30,R26
0012c8 01bc      	MOVW R22,R24
0012c9 f031      	BREQ __LSLD12R
                 __LSLD12L:
0012ca 0fee      	LSL  R30
0012cb 1fff      	ROL  R31
0012cc 1f66      	ROL  R22
0012cd 1f77      	ROL  R23
0012ce 940a      	DEC  R0
0012cf f7d1      	BRNE __LSLD12L
                 __LSLD12R:
0012d0 9508      	RET
                 
                 __LSLD16:
0012d1 2f6e      	MOV  R22,R30
0012d2 2f7f      	MOV  R23,R31
0012d3 e0e0      	LDI  R30,0
0012d4 e0f0      	LDI  R31,0
0012d5 9508      	RET
                 
                 __CBD1:
0012d6 2ffe      	MOV  R31,R30
0012d7 0fff      	ADD  R31,R31
0012d8 0bff      	SBC  R31,R31
0012d9 2f6f      	MOV  R22,R31
0012da 2f7f      	MOV  R23,R31
0012db 9508      	RET
                 
                 __CWD1:
0012dc 2f6f      	MOV  R22,R31
0012dd 0f66      	ADD  R22,R22
0012de 0b66      	SBC  R22,R22
0012df 2f76      	MOV  R23,R22
0012e0 9508      	RET
                 
                 __MULW12U:
0012e1 9ffa      	MUL  R31,R26
0012e2 2df0      	MOV  R31,R0
0012e3 9feb      	MUL  R30,R27
0012e4 0df0      	ADD  R31,R0
0012e5 9fea      	MUL  R30,R26
0012e6 2de0      	MOV  R30,R0
0012e7 0df1      	ADD  R31,R1
0012e8 9508      	RET
                 
                 __MULB1W2U:
0012e9 2f6e      	MOV  R22,R30
0012ea 9f6a      	MUL  R22,R26
0012eb 01f0      	MOVW R30,R0
0012ec 9f6b      	MUL  R22,R27
0012ed 0df0      	ADD  R31,R0
0012ee 9508      	RET
                 
                 __MULW12:
0012ef d07e      	RCALL __CHKSIGNW
0012f0 dff0      	RCALL __MULW12U
0012f1 f40e      	BRTC __MULW121
0012f2 dfc6      	RCALL __ANEGW1
                 __MULW121:
0012f3 9508      	RET
                 
                 __DIVB21U:
0012f4 2400      	CLR  R0
0012f5 e098      	LDI  R25,8
                 __DIVB21U1:
0012f6 0faa      	LSL  R26
0012f7 1c00      	ROL  R0
0012f8 1a0e      	SUB  R0,R30
0012f9 f410      	BRCC __DIVB21U2
0012fa 0e0e      	ADD  R0,R30
0012fb c001      	RJMP __DIVB21U3
                 __DIVB21U2:
0012fc 60a1      	SBR  R26,1
                 __DIVB21U3:
0012fd 959a      	DEC  R25
0012fe f7b9      	BRNE __DIVB21U1
0012ff 2fea      	MOV  R30,R26
001300 2da0      	MOV  R26,R0
001301 9508      	RET
                 
                 __DIVB21:
001302 d05f      	RCALL __CHKSIGNB
001303 dff0      	RCALL __DIVB21U
001304 f40e      	BRTC __DIVB211
001305 95e1      	NEG  R30
                 __DIVB211:
001306 9508      	RET
                 
                 __DIVW21U:
001307 2400      	CLR  R0
001308 2411      	CLR  R1
001309 e190      	LDI  R25,16
                 __DIVW21U1:
00130a 0faa      	LSL  R26
00130b 1fbb      	ROL  R27
00130c 1c00      	ROL  R0
00130d 1c11      	ROL  R1
00130e 1a0e      	SUB  R0,R30
00130f 0a1f      	SBC  R1,R31
001310 f418      	BRCC __DIVW21U2
001311 0e0e      	ADD  R0,R30
001312 1e1f      	ADC  R1,R31
001313 c001      	RJMP __DIVW21U3
                 __DIVW21U2:
001314 60a1      	SBR  R26,1
                 __DIVW21U3:
001315 959a      	DEC  R25
001316 f799      	BRNE __DIVW21U1
001317 01fd      	MOVW R30,R26
001318 01d0      	MOVW R26,R0
001319 9508      	RET
                 
                 __DIVW21:
00131a d053      	RCALL __CHKSIGNW
00131b dfeb      	RCALL __DIVW21U
00131c f40e      	BRTC __DIVW211
00131d df9b      	RCALL __ANEGW1
                 __DIVW211:
00131e 9508      	RET
                 
                 __DIVD21U:
00131f 933f      	PUSH R19
001320 934f      	PUSH R20
001321 935f      	PUSH R21
001322 2400      	CLR  R0
001323 2411      	CLR  R1
001324 2744      	CLR  R20
001325 2755      	CLR  R21
001326 e230      	LDI  R19,32
                 __DIVD21U1:
001327 0faa      	LSL  R26
001328 1fbb      	ROL  R27
001329 1f88      	ROL  R24
00132a 1f99      	ROL  R25
00132b 1c00      	ROL  R0
00132c 1c11      	ROL  R1
00132d 1f44      	ROL  R20
00132e 1f55      	ROL  R21
00132f 1a0e      	SUB  R0,R30
001330 0a1f      	SBC  R1,R31
001331 0b46      	SBC  R20,R22
001332 0b57      	SBC  R21,R23
001333 f428      	BRCC __DIVD21U2
001334 0e0e      	ADD  R0,R30
001335 1e1f      	ADC  R1,R31
001336 1f46      	ADC  R20,R22
001337 1f57      	ADC  R21,R23
001338 c001      	RJMP __DIVD21U3
                 __DIVD21U2:
001339 60a1      	SBR  R26,1
                 __DIVD21U3:
00133a 953a      	DEC  R19
00133b f759      	BRNE __DIVD21U1
00133c 01fd      	MOVW R30,R26
00133d 01bc      	MOVW R22,R24
00133e 01d0      	MOVW R26,R0
00133f 01ca      	MOVW R24,R20
001340 915f      	POP  R21
001341 914f      	POP  R20
001342 913f      	POP  R19
001343 9508      	RET
                 
                 __MODB21:
001344 94e8      	CLT
001345 ffa7      	SBRS R26,7
001346 c002      	RJMP __MODB211
001347 95a1      	NEG  R26
001348 9468      	SET
                 __MODB211:
001349 fde7      	SBRC R30,7
00134a 95e1      	NEG  R30
00134b dfa8      	RCALL __DIVB21U
00134c 2fea      	MOV  R30,R26
00134d f40e      	BRTC __MODB212
00134e 95e1      	NEG  R30
                 __MODB212:
00134f 9508      	RET
                 
                 __MODW21:
001350 94e8      	CLT
001351 ffb7      	SBRS R27,7
001352 c004      	RJMP __MODW211
001353 95a0      	COM  R26
001354 95b0      	COM  R27
001355 9611      	ADIW R26,1
001356 9468      	SET
                 __MODW211:
001357 fdf7      	SBRC R31,7
001358 df60      	RCALL __ANEGW1
001359 dfad      	RCALL __DIVW21U
00135a 01fd      	MOVW R30,R26
00135b f40e      	BRTC __MODW212
00135c df5c      	RCALL __ANEGW1
                 __MODW212:
00135d 9508      	RET
                 
                 __MODD21U:
00135e dfc0      	RCALL __DIVD21U
00135f 01fd      	MOVW R30,R26
001360 01bc      	MOVW R22,R24
001361 9508      	RET
                 
                 __CHKSIGNB:
001362 94e8      	CLT
001363 ffe7      	SBRS R30,7
001364 c002      	RJMP __CHKSB1
001365 95e1      	NEG  R30
001366 9468      	SET
                 __CHKSB1:
001367 ffa7      	SBRS R26,7
001368 c004      	RJMP __CHKSB2
001369 95a1      	NEG  R26
00136a f800      	BLD  R0,0
00136b 9403      	INC  R0
00136c fa00      	BST  R0,0
                 __CHKSB2:
00136d 9508      	RET
                 
                 __CHKSIGNW:
00136e 94e8      	CLT
00136f fff7      	SBRS R31,7
001370 c002      	RJMP __CHKSW1
001371 df47      	RCALL __ANEGW1
001372 9468      	SET
                 __CHKSW1:
001373 ffb7      	SBRS R27,7
001374 c006      	RJMP __CHKSW2
001375 95a0      	COM  R26
001376 95b0      	COM  R27
001377 9611      	ADIW R26,1
001378 f800      	BLD  R0,0
001379 9403      	INC  R0
00137a fa00      	BST  R0,0
                 __CHKSW2:
00137b 9508      	RET
                 
                 __GETW1P:
00137c 91ed      	LD   R30,X+
00137d 91fc      	LD   R31,X
00137e 9711      	SBIW R26,1
00137f 9508      	RET
                 
                 __GETD1P:
001380 91ed      	LD   R30,X+
001381 91fd      	LD   R31,X+
001382 916d      	LD   R22,X+
001383 917c      	LD   R23,X
001384 9713      	SBIW R26,3
001385 9508      	RET
                 
                 __GETD1P_INC:
001386 91ed      	LD   R30,X+
001387 91fd      	LD   R31,X+
001388 916d      	LD   R22,X+
001389 917d      	LD   R23,X+
00138a 9508      	RET
                 
                 __PUTDP1_DEC:
00138b 937e      	ST   -X,R23
00138c 936e      	ST   -X,R22
00138d 93fe      	ST   -X,R31
00138e 93ee      	ST   -X,R30
00138f 9508      	RET
                 
                 __GETD1S0:
001390 81e8      	LD   R30,Y
001391 81f9      	LDD  R31,Y+1
001392 816a      	LDD  R22,Y+2
001393 817b      	LDD  R23,Y+3
001394 9508      	RET
                 
                 __PUTD1S0:
001395 83e8      	ST   Y,R30
001396 83f9      	STD  Y+1,R31
001397 836a      	STD  Y+2,R22
001398 837b      	STD  Y+3,R23
001399 9508      	RET
                 
                 __PUTPARD1:
00139a 937a      	ST   -Y,R23
00139b 936a      	ST   -Y,R22
00139c 93fa      	ST   -Y,R31
00139d 93ea      	ST   -Y,R30
00139e 9508      	RET
                 
                 __SWAPD12:
00139f 2e18      	MOV  R1,R24
0013a0 2f86      	MOV  R24,R22
0013a1 2d61      	MOV  R22,R1
0013a2 2e19      	MOV  R1,R25
0013a3 2f97      	MOV  R25,R23
0013a4 2d71      	MOV  R23,R1
                 
                 __SWAPW12:
0013a5 2e1b      	MOV  R1,R27
0013a6 2fbf      	MOV  R27,R31
0013a7 2df1      	MOV  R31,R1
                 
                 __SWAPB12:
0013a8 2e1a      	MOV  R1,R26
0013a9 2fae      	MOV  R26,R30
0013aa 2de1      	MOV  R30,R1
0013ab 9508      	RET
                 
                 __CPD10:
0013ac 9730      	SBIW R30,0
0013ad 4060      	SBCI R22,0
0013ae 4070      	SBCI R23,0
0013af 9508      	RET
                 
                 __SAVELOCR6:
0013b0 935a      	ST   -Y,R21
                 __SAVELOCR5:
0013b1 934a      	ST   -Y,R20
                 __SAVELOCR4:
0013b2 933a      	ST   -Y,R19
                 __SAVELOCR3:
0013b3 932a      	ST   -Y,R18
                 __SAVELOCR2:
0013b4 931a      	ST   -Y,R17
0013b5 930a      	ST   -Y,R16
0013b6 9508      	RET
                 
                 __LOADLOCR6:
0013b7 815d      	LDD  R21,Y+5
                 __LOADLOCR5:
0013b8 814c      	LDD  R20,Y+4
                 __LOADLOCR4:
0013b9 813b      	LDD  R19,Y+3
                 __LOADLOCR3:
0013ba 812a      	LDD  R18,Y+2
                 __LOADLOCR2:
0013bb 8119      	LDD  R17,Y+1
0013bc 8108      	LD   R16,Y
0013bd 9508      	RET
                 
                 ;END OF CODE MARKER
                 __END_OF_CODE:


RESOURCE USE INFORMATION
------------------------

Notice:
The register and instruction counts are symbol table hit counts,
and hence implicitly used resources are not counted, eg, the
'lpm' instruction without operands implicitly uses r0 and z,
none of which are counted.

x,y,z are separate entities in the symbol table and are
counted separately from r26..r31 here.

.dseg memory usage only counts static data declared with .byte

ATxmega32A4 register use summary:
r0 :  91 r1 :  39 r2 :  15 r3 :   4 r4 :   9 r5 :   3 r6 :   7 r7 :   4 
r8 :   6 r9 :   3 r10:   3 r11:   3 r12:   3 r13:   3 r14:   0 r15:   4 
r16: 104 r17: 102 r18:  61 r19:  47 r20:  50 r21:  90 r22: 134 r23: 113 
r24:  81 r25:  65 r26: 398 r27: 107 r28:  34 r29:   1 r30:1095 r31: 347 
x  :  58 y  : 525 z  :  40 
Registers used: 34 out of 35 (97.1%)

ATxmega32A4 instruction use summary:
.lds  :   0 .lds.l:   0 .sts  :   0 .sts.l:   0 adc   :  30 add   :  27 
adiw  :  51 and   :   5 andi  :  59 asr   :   0 bclr  :   0 bld   :   4 
brbc  :   0 brbs  :   0 brcc  :   9 brcs  :   1 break :   0 breq  :  89 
brge  :   6 brhc  :   0 brhs  :   0 brid  :   0 brie  :   0 brlo  :  32 
brlt  :   5 brmi  :  11 brne  : 108 brpl  :   9 brsh  :   9 brtc  :   7 
brts  :   1 brvc  :   4 brvs  :   4 bset  :   0 bst   :   4 call  : 324 
cbi   :   4 cbr   :   2 clc   :   3 clh   :   0 cli   :   6 cln   :   0 
clr   :  61 cls   :   0 clt   :   7 clv   :   0 clz   :   2 com   :  12 
cp    :  19 cpc   :  27 cpi   : 170 cpse  :   0 dec   :  19 des   :   0 
eor   :   7 fmul  :   0 fmuls :   0 fmulsu:   0 icall :   3 ijmp  :   0 
in    :   7 inc   :   4 jmp   : 112 ld    :  90 ldd   : 204 ldi   : 435 
lds   : 191 lpm   :  12 lsl   :  16 lsr   :   3 mov   : 117 movw  : 105 
mul   :  16 muls  :   1 mulsu :   0 neg   :  11 nop   :   0 or    :   5 
ori   :  21 out   :  37 pop   :  26 push  :  26 rcall : 144 ret   : 133 
reti  :   3 rjmp  : 224 rol   :  38 ror   :  15 sbc   :  13 sbci  :  45 
sbi   :   6 sbic  :   1 sbis  :   7 sbiw  :  44 sbr   :   6 sbrc  :   5 
sbrs  :  23 sec   :   5 seh   :   0 sei   :   1 sen   :   0 ser   :   8 
ses   :   0 set   :   6 sev   :   0 sez   :   1 sleep :   0 spm   :   0 
st    : 229 std   :  89 sts   : 190 sub   :   8 subi  :  85 swap  :   0 
tst   :  25 wdr   :   0 
Instructions used: 82 out of 116 (70.7%)

ATxmega32A4 memory use summary [bytes]:
Segment   Begin    End      Code   Data   Used    Size   Use%
---------------------------------------------------------------
[.cseg] 0x000000 0x00277c   9500    608  10108   34816  29.0%
[.dseg] 0x002000 0x0026dc      0    732    732   12287   6.0%
[.eseg] 0x000000 0x000000      0      0      0    1024   0.0%

Assembly complete, 0 errors, 14 warnings
